ARM GAS  C:\Users\SPITFI~1\AppData\Local\Temp\cc9g4rtH.s 			page 1


   1              		.cpu cortex-m0
   2              		.fpu softvfp
   3              		.eabi_attribute 20, 1
   4              		.eabi_attribute 21, 1
   5              		.eabi_attribute 23, 3
   6              		.eabi_attribute 24, 1
   7              		.eabi_attribute 25, 1
   8              		.eabi_attribute 26, 1
   9              		.eabi_attribute 30, 1
  10              		.eabi_attribute 34, 0
  11              		.eabi_attribute 18, 4
  12              		.code	16
  13              		.file	"CyFlash.c"
  14              		.text
  15              	.Ltext0:
  16              		.cfi_sections	.debug_frame
  17              		.section	.text.CySysFlashClockBackup,"ax",%progbits
  18              		.align	2
  19              		.code	16
  20              		.thumb_func
  21              		.type	CySysFlashClockBackup, %function
  22              	CySysFlashClockBackup:
  23              	.LFB2:
  24              		.file 1 ".\\Generated_Source\\PSoC4\\CyFlash.c"
   1:.\Generated_Source\PSoC4/CyFlash.c **** /***************************************************************************//**
   2:.\Generated_Source\PSoC4/CyFlash.c **** * \file CyFlash.c
   3:.\Generated_Source\PSoC4/CyFlash.c **** * \version 5.40
   4:.\Generated_Source\PSoC4/CyFlash.c **** *
   5:.\Generated_Source\PSoC4/CyFlash.c **** * \brief Provides an API for the FLASH.
   6:.\Generated_Source\PSoC4/CyFlash.c **** *
   7:.\Generated_Source\PSoC4/CyFlash.c **** * \note This code is endian agnostic.
   8:.\Generated_Source\PSoC4/CyFlash.c **** *
   9:.\Generated_Source\PSoC4/CyFlash.c **** * \note Documentation of the API's in this file is located in the System
  10:.\Generated_Source\PSoC4/CyFlash.c **** * Reference Guide provided with PSoC Creator.
  11:.\Generated_Source\PSoC4/CyFlash.c **** *
  12:.\Generated_Source\PSoC4/CyFlash.c **** ********************************************************************************
  13:.\Generated_Source\PSoC4/CyFlash.c **** * \copyright
  14:.\Generated_Source\PSoC4/CyFlash.c **** * Copyright 2010-2016, Cypress Semiconductor Corporation.  All rights reserved.
  15:.\Generated_Source\PSoC4/CyFlash.c **** * You may use this file only in accordance with the license, terms, conditions,
  16:.\Generated_Source\PSoC4/CyFlash.c **** * disclaimers, and limitations in the end user license agreement accompanying
  17:.\Generated_Source\PSoC4/CyFlash.c **** * the software package with which this file was provided.
  18:.\Generated_Source\PSoC4/CyFlash.c **** *******************************************************************************/
  19:.\Generated_Source\PSoC4/CyFlash.c **** 
  20:.\Generated_Source\PSoC4/CyFlash.c **** #include "CyFlash.h"
  21:.\Generated_Source\PSoC4/CyFlash.c **** 
  22:.\Generated_Source\PSoC4/CyFlash.c **** 
  23:.\Generated_Source\PSoC4/CyFlash.c **** /*******************************************************************************
  24:.\Generated_Source\PSoC4/CyFlash.c **** * Cypress identified a defect with the Flash write functionality of the
  25:.\Generated_Source\PSoC4/CyFlash.c **** * PSoC 4000, PSoC 4100, and PSoC 4200 devices. The CySysFlashWriteRow() function
  26:.\Generated_Source\PSoC4/CyFlash.c **** * now checks the data to be written and, if necessary, modifies it to have a
  27:.\Generated_Source\PSoC4/CyFlash.c **** * non-zero checksum. After writing to Flash, the modified data is replaced
  28:.\Generated_Source\PSoC4/CyFlash.c **** * (Flash program) with the correct (original) data.
  29:.\Generated_Source\PSoC4/CyFlash.c **** *******************************************************************************/
  30:.\Generated_Source\PSoC4/CyFlash.c **** #define CY_FLASH_CHECKSUM_WORKAROUND    (CY_PSOC4_4000 || CY_PSOC4_4100 || CY_PSOC4_4200)
  31:.\Generated_Source\PSoC4/CyFlash.c **** 
  32:.\Generated_Source\PSoC4/CyFlash.c **** #if (CY_IP_FM || ((!CY_PSOC4_4000) && CY_IP_SPCIF_SYNCHRONOUS) || (!CY_IP_FM) && CY_PSOC4_4000)
  33:.\Generated_Source\PSoC4/CyFlash.c ****     static CY_SYS_FLASH_CLOCK_BACKUP_STRUCT cySysFlashBackup;
ARM GAS  C:\Users\SPITFI~1\AppData\Local\Temp\cc9g4rtH.s 			page 2


  34:.\Generated_Source\PSoC4/CyFlash.c **** #endif /* (CY_IP_FM || ((!CY_PSOC4_4000) && CY_IP_SPCIF_SYNCHRONOUS) || (!CY_IP_FM) && CY_PSOC4_400
  35:.\Generated_Source\PSoC4/CyFlash.c **** 
  36:.\Generated_Source\PSoC4/CyFlash.c **** static cystatus CySysFlashClockBackup(void);
  37:.\Generated_Source\PSoC4/CyFlash.c **** static cystatus CySysFlashClockRestore(void);
  38:.\Generated_Source\PSoC4/CyFlash.c **** #if(CY_IP_SPCIF_SYNCHRONOUS)
  39:.\Generated_Source\PSoC4/CyFlash.c ****     static cystatus CySysFlashClockConfig(void);
  40:.\Generated_Source\PSoC4/CyFlash.c **** #endif  /* (CY_IP_SPCIF_SYNCHRONOUS) */
  41:.\Generated_Source\PSoC4/CyFlash.c **** 
  42:.\Generated_Source\PSoC4/CyFlash.c **** 
  43:.\Generated_Source\PSoC4/CyFlash.c **** /*******************************************************************************
  44:.\Generated_Source\PSoC4/CyFlash.c **** * Function Name: CySysFlashWriteRow
  45:.\Generated_Source\PSoC4/CyFlash.c **** ****************************************************************************//**
  46:.\Generated_Source\PSoC4/CyFlash.c **** *
  47:.\Generated_Source\PSoC4/CyFlash.c **** * Erases a row of Flash and programs it with the new data.
  48:.\Generated_Source\PSoC4/CyFlash.c **** *
  49:.\Generated_Source\PSoC4/CyFlash.c **** * The IMO must be enabled before calling this function. The operation of the
  50:.\Generated_Source\PSoC4/CyFlash.c **** * flash writing hardware is dependent on the IMO.
  51:.\Generated_Source\PSoC4/CyFlash.c **** *
  52:.\Generated_Source\PSoC4/CyFlash.c **** * For PSoC 4000, PSoC 4100 BLE and PSoC 4200 BLE devices (PSoC 4100 BLE and
  53:.\Generated_Source\PSoC4/CyFlash.c **** * PSoC 4200 BLE devices with 256K of Flash memory are not affected), this API
  54:.\Generated_Source\PSoC4/CyFlash.c **** * will automatically modify the clock settings for the device. Writing to
  55:.\Generated_Source\PSoC4/CyFlash.c **** * flash requires that changes be made to the IMO and HFCLK settings. The
  56:.\Generated_Source\PSoC4/CyFlash.c **** * configuration is restored before returning. This will impact the operation
  57:.\Generated_Source\PSoC4/CyFlash.c **** * of most of the hardware in the device.
  58:.\Generated_Source\PSoC4/CyFlash.c **** *
  59:.\Generated_Source\PSoC4/CyFlash.c **** * For PSoC 4000 devices this API will automatically modify the clock settings
  60:.\Generated_Source\PSoC4/CyFlash.c **** * for the device. Writing to flash requires that changes be made to the IMO
  61:.\Generated_Source\PSoC4/CyFlash.c **** * and HFCLK settings. The configuration is restored before returning. HFCLK
  62:.\Generated_Source\PSoC4/CyFlash.c **** * will have several frequency changes during the operation of this API between
  63:.\Generated_Source\PSoC4/CyFlash.c **** * a minimum frequency of the current IMO frequency divided by 8 and a maximum
  64:.\Generated_Source\PSoC4/CyFlash.c **** * frequency of 12 MHz. This will impact the operation of most of the hardware
  65:.\Generated_Source\PSoC4/CyFlash.c **** * in the device.
  66:.\Generated_Source\PSoC4/CyFlash.c **** *
  67:.\Generated_Source\PSoC4/CyFlash.c **** * \param rowNum The flash row number. The number of the flash rows is defined by
  68:.\Generated_Source\PSoC4/CyFlash.c **** * the \ref CY_FLASH_NUMBER_ROWS macro for the selected device. Refer to the
  69:.\Generated_Source\PSoC4/CyFlash.c **** * device datasheet for the details.
  70:.\Generated_Source\PSoC4/CyFlash.c **** * \note The target flash array is calculated based on the specified flash row.
  71:.\Generated_Source\PSoC4/CyFlash.c **** *
  72:.\Generated_Source\PSoC4/CyFlash.c **** * \param rowData Array of bytes to write. The size of the array must be equal to
  73:.\Generated_Source\PSoC4/CyFlash.c **** * the flash row size. The flash row size for the selected device is defined by
  74:.\Generated_Source\PSoC4/CyFlash.c **** * the \ref CY_FLASH_SIZEOF_ROW macro. Refer to the device datasheet for the
  75:.\Generated_Source\PSoC4/CyFlash.c **** * details.
  76:.\Generated_Source\PSoC4/CyFlash.c **** *
  77:.\Generated_Source\PSoC4/CyFlash.c **** * \return \ref group_flash_status_codes
  78:.\Generated_Source\PSoC4/CyFlash.c **** *
  79:.\Generated_Source\PSoC4/CyFlash.c **** *******************************************************************************/
  80:.\Generated_Source\PSoC4/CyFlash.c **** uint32 CySysFlashWriteRow(uint32 rowNum, const uint8 rowData[])
  81:.\Generated_Source\PSoC4/CyFlash.c **** {
  82:.\Generated_Source\PSoC4/CyFlash.c ****     volatile uint32 retValue = CY_SYS_FLASH_SUCCESS;
  83:.\Generated_Source\PSoC4/CyFlash.c ****     volatile uint32 clkCnfRetValue = CY_SYS_FLASH_SUCCESS;
  84:.\Generated_Source\PSoC4/CyFlash.c ****     volatile uint32 parameters[(CY_FLASH_SIZEOF_ROW + CY_FLASH_SRAM_ROM_DATA) / sizeof(uint32)];
  85:.\Generated_Source\PSoC4/CyFlash.c ****     uint8  interruptState;
  86:.\Generated_Source\PSoC4/CyFlash.c **** 
  87:.\Generated_Source\PSoC4/CyFlash.c ****     #if (CY_FLASH_CHECKSUM_WORKAROUND)
  88:.\Generated_Source\PSoC4/CyFlash.c ****         uint32 needChecksumWorkaround = 0u;
  89:.\Generated_Source\PSoC4/CyFlash.c ****         uint32 savedIndex = 0u;
  90:.\Generated_Source\PSoC4/CyFlash.c ****         uint32 savedValue = 0u;
ARM GAS  C:\Users\SPITFI~1\AppData\Local\Temp\cc9g4rtH.s 			page 3


  91:.\Generated_Source\PSoC4/CyFlash.c ****         uint32 checksum = 0u;
  92:.\Generated_Source\PSoC4/CyFlash.c ****         uint32 bits = 0u;
  93:.\Generated_Source\PSoC4/CyFlash.c ****         uint32 i;
  94:.\Generated_Source\PSoC4/CyFlash.c ****     #endif  /* (CY_FLASH_CHECKSUM_WORKAROUND) */
  95:.\Generated_Source\PSoC4/CyFlash.c **** 
  96:.\Generated_Source\PSoC4/CyFlash.c ****     if ((rowNum < CY_FLASH_NUMBER_ROWS) && (rowData != 0u))
  97:.\Generated_Source\PSoC4/CyFlash.c ****     {
  98:.\Generated_Source\PSoC4/CyFlash.c ****         /* Copy data to be written into internal variable */
  99:.\Generated_Source\PSoC4/CyFlash.c ****         (void)memcpy((void *)&parameters[2u], rowData, CY_FLASH_SIZEOF_ROW);
 100:.\Generated_Source\PSoC4/CyFlash.c **** 
 101:.\Generated_Source\PSoC4/CyFlash.c ****         #if (CY_FLASH_CHECKSUM_WORKAROUND)
 102:.\Generated_Source\PSoC4/CyFlash.c **** 
 103:.\Generated_Source\PSoC4/CyFlash.c ****             for (i = 2u; i < ((CY_FLASH_SIZEOF_ROW / sizeof(uint32)) + 2u); i++)
 104:.\Generated_Source\PSoC4/CyFlash.c ****             {
 105:.\Generated_Source\PSoC4/CyFlash.c ****                 uint32 tmp = parameters[i];
 106:.\Generated_Source\PSoC4/CyFlash.c ****                 if (tmp != 0u)
 107:.\Generated_Source\PSoC4/CyFlash.c ****                 {
 108:.\Generated_Source\PSoC4/CyFlash.c ****                     checksum += tmp;
 109:.\Generated_Source\PSoC4/CyFlash.c ****                     bits |= tmp;
 110:.\Generated_Source\PSoC4/CyFlash.c ****                     savedIndex = i;
 111:.\Generated_Source\PSoC4/CyFlash.c ****                 }
 112:.\Generated_Source\PSoC4/CyFlash.c ****             }
 113:.\Generated_Source\PSoC4/CyFlash.c **** 
 114:.\Generated_Source\PSoC4/CyFlash.c ****             needChecksumWorkaround = ((checksum == 0u) && (bits != 0u)) ? 1u : 0u;
 115:.\Generated_Source\PSoC4/CyFlash.c ****             if (needChecksumWorkaround != 0u)
 116:.\Generated_Source\PSoC4/CyFlash.c ****             {
 117:.\Generated_Source\PSoC4/CyFlash.c ****                 savedValue = parameters[savedIndex];
 118:.\Generated_Source\PSoC4/CyFlash.c ****                 parameters[savedIndex] = 0u;
 119:.\Generated_Source\PSoC4/CyFlash.c ****             }
 120:.\Generated_Source\PSoC4/CyFlash.c ****         #endif  /* (CY_FLASH_CHECKSUM_WORKAROUND) */
 121:.\Generated_Source\PSoC4/CyFlash.c **** 
 122:.\Generated_Source\PSoC4/CyFlash.c ****         /* Load Flash Bytes */
 123:.\Generated_Source\PSoC4/CyFlash.c ****         parameters[0u] = (uint32) (CY_FLASH_GET_MACRO_FROM_ROW(rowNum)        << CY_FLASH_PARAM_MAC
 124:.\Generated_Source\PSoC4/CyFlash.c ****                          (uint32) (CY_FLASH_PAGE_LATCH_START_ADDR             << CY_FLASH_PARAM_ADD
 125:.\Generated_Source\PSoC4/CyFlash.c ****                          (uint32) (CY_FLASH_KEY_TWO(CY_FLASH_API_OPCODE_LOAD) << CY_FLASH_PARAM_KEY
 126:.\Generated_Source\PSoC4/CyFlash.c ****                          CY_FLASH_KEY_ONE;
 127:.\Generated_Source\PSoC4/CyFlash.c ****         parameters[1u] = CY_FLASH_SIZEOF_ROW - 1u;
 128:.\Generated_Source\PSoC4/CyFlash.c **** 
 129:.\Generated_Source\PSoC4/CyFlash.c ****         CY_FLASH_CPUSS_SYSARG_REG = (uint32) &parameters[0u];
 130:.\Generated_Source\PSoC4/CyFlash.c ****         CY_FLASH_CPUSS_SYSREQ_REG = CY_FLASH_CPUSS_REQ_START | CY_FLASH_API_OPCODE_LOAD;
 131:.\Generated_Source\PSoC4/CyFlash.c ****         CY_NOP;
 132:.\Generated_Source\PSoC4/CyFlash.c ****         retValue = CY_FLASH_API_RETURN;
 133:.\Generated_Source\PSoC4/CyFlash.c **** 
 134:.\Generated_Source\PSoC4/CyFlash.c ****         if(retValue == CY_SYS_FLASH_SUCCESS)
 135:.\Generated_Source\PSoC4/CyFlash.c ****         {
 136:.\Generated_Source\PSoC4/CyFlash.c ****             /***************************************************************
 137:.\Generated_Source\PSoC4/CyFlash.c ****             * Mask all the exceptions to guarantee that Flash write will
 138:.\Generated_Source\PSoC4/CyFlash.c ****             * occur in the atomic way. It will not affect system call
 139:.\Generated_Source\PSoC4/CyFlash.c ****             * execution (flash row write) since it is executed in the NMI
 140:.\Generated_Source\PSoC4/CyFlash.c ****             * context.
 141:.\Generated_Source\PSoC4/CyFlash.c ****             ***************************************************************/
 142:.\Generated_Source\PSoC4/CyFlash.c ****             interruptState = CyEnterCriticalSection();
 143:.\Generated_Source\PSoC4/CyFlash.c **** 
 144:.\Generated_Source\PSoC4/CyFlash.c ****             clkCnfRetValue = CySysFlashClockBackup();
 145:.\Generated_Source\PSoC4/CyFlash.c **** 
 146:.\Generated_Source\PSoC4/CyFlash.c ****         #if(CY_IP_SPCIF_SYNCHRONOUS)
 147:.\Generated_Source\PSoC4/CyFlash.c ****             if(clkCnfRetValue == CY_SYS_FLASH_SUCCESS)
ARM GAS  C:\Users\SPITFI~1\AppData\Local\Temp\cc9g4rtH.s 			page 4


 148:.\Generated_Source\PSoC4/CyFlash.c ****             {
 149:.\Generated_Source\PSoC4/CyFlash.c ****                 retValue = CySysFlashClockConfig();
 150:.\Generated_Source\PSoC4/CyFlash.c ****             }
 151:.\Generated_Source\PSoC4/CyFlash.c ****         #endif  /* (CY_IP_SPCIF_SYNCHRONOUS) */
 152:.\Generated_Source\PSoC4/CyFlash.c **** 
 153:.\Generated_Source\PSoC4/CyFlash.c ****             if(retValue == CY_SYS_FLASH_SUCCESS)
 154:.\Generated_Source\PSoC4/CyFlash.c ****             {
 155:.\Generated_Source\PSoC4/CyFlash.c ****                 /* Write Row */
 156:.\Generated_Source\PSoC4/CyFlash.c ****                 parameters[0u]  = (uint32) (((uint32) CY_FLASH_KEY_TWO(CY_FLASH_API_OPCODE_WRITE_RO
 157:.\Generated_Source\PSoC4/CyFlash.c ****                 parameters[0u] |= (uint32)(rowNum << 16u);
 158:.\Generated_Source\PSoC4/CyFlash.c **** 
 159:.\Generated_Source\PSoC4/CyFlash.c ****                 CY_FLASH_CPUSS_SYSARG_REG = (uint32) &parameters[0u];
 160:.\Generated_Source\PSoC4/CyFlash.c ****                 CY_FLASH_CPUSS_SYSREQ_REG = CY_FLASH_CPUSS_REQ_START | CY_FLASH_API_OPCODE_WRITE_RO
 161:.\Generated_Source\PSoC4/CyFlash.c ****                 CY_NOP;
 162:.\Generated_Source\PSoC4/CyFlash.c ****                 retValue = CY_FLASH_API_RETURN;
 163:.\Generated_Source\PSoC4/CyFlash.c ****             }
 164:.\Generated_Source\PSoC4/CyFlash.c **** 
 165:.\Generated_Source\PSoC4/CyFlash.c ****             #if (CY_FLASH_CHECKSUM_WORKAROUND)
 166:.\Generated_Source\PSoC4/CyFlash.c **** 
 167:.\Generated_Source\PSoC4/CyFlash.c ****                 if ((retValue == CYRET_SUCCESS) && (needChecksumWorkaround != 0u))
 168:.\Generated_Source\PSoC4/CyFlash.c ****                 {
 169:.\Generated_Source\PSoC4/CyFlash.c ****                     (void)memset((void *)&parameters[2u], 0, CY_FLASH_SIZEOF_ROW);
 170:.\Generated_Source\PSoC4/CyFlash.c ****                     parameters[savedIndex] = savedValue;
 171:.\Generated_Source\PSoC4/CyFlash.c **** 
 172:.\Generated_Source\PSoC4/CyFlash.c ****                     /* Load Flash Bytes */
 173:.\Generated_Source\PSoC4/CyFlash.c ****                     parameters[0u] = (uint32) (CY_FLASH_GET_MACRO_FROM_ROW(rowNum)        << CY_FLA
 174:.\Generated_Source\PSoC4/CyFlash.c ****                                      (uint32) (CY_FLASH_PAGE_LATCH_START_ADDR             << CY_FLA
 175:.\Generated_Source\PSoC4/CyFlash.c ****                                      (uint32) (CY_FLASH_KEY_TWO(CY_FLASH_API_OPCODE_LOAD) << CY_FLA
 176:.\Generated_Source\PSoC4/CyFlash.c ****                                      CY_FLASH_KEY_ONE;
 177:.\Generated_Source\PSoC4/CyFlash.c ****                     parameters[1u] = CY_FLASH_SIZEOF_ROW - 1u;
 178:.\Generated_Source\PSoC4/CyFlash.c **** 
 179:.\Generated_Source\PSoC4/CyFlash.c ****                     CY_FLASH_CPUSS_SYSARG_REG = (uint32) &parameters[0u];
 180:.\Generated_Source\PSoC4/CyFlash.c ****                     CY_FLASH_CPUSS_SYSREQ_REG = CY_FLASH_CPUSS_REQ_START | CY_FLASH_API_OPCODE_LOAD
 181:.\Generated_Source\PSoC4/CyFlash.c ****                     CY_NOP;
 182:.\Generated_Source\PSoC4/CyFlash.c ****                     retValue = CY_FLASH_API_RETURN;
 183:.\Generated_Source\PSoC4/CyFlash.c **** 
 184:.\Generated_Source\PSoC4/CyFlash.c **** 
 185:.\Generated_Source\PSoC4/CyFlash.c ****                     if(retValue == CY_SYS_FLASH_SUCCESS)
 186:.\Generated_Source\PSoC4/CyFlash.c ****                     {
 187:.\Generated_Source\PSoC4/CyFlash.c ****                         /* Program Row */
 188:.\Generated_Source\PSoC4/CyFlash.c ****                         parameters[0u]  =
 189:.\Generated_Source\PSoC4/CyFlash.c ****                             (uint32) (((uint32) CY_FLASH_KEY_TWO(CY_FLASH_API_OPCODE_PROGRAM_ROW) <
 190:.\Generated_Source\PSoC4/CyFlash.c ****                                                     CY_FLASH_PARAM_KEY_TWO_OFFSET) | CY_FLASH_KEY_O
 191:.\Generated_Source\PSoC4/CyFlash.c ****                         parameters[0u] |= (uint32)(rowNum << 16u);
 192:.\Generated_Source\PSoC4/CyFlash.c **** 
 193:.\Generated_Source\PSoC4/CyFlash.c ****                         CY_FLASH_CPUSS_SYSARG_REG = (uint32) &parameters[0u];
 194:.\Generated_Source\PSoC4/CyFlash.c ****                         CY_FLASH_CPUSS_SYSREQ_REG = CY_FLASH_CPUSS_REQ_START | CY_FLASH_API_OPCODE_
 195:.\Generated_Source\PSoC4/CyFlash.c ****                         CY_NOP;
 196:.\Generated_Source\PSoC4/CyFlash.c ****                         retValue = CY_FLASH_API_RETURN;
 197:.\Generated_Source\PSoC4/CyFlash.c ****                     }
 198:.\Generated_Source\PSoC4/CyFlash.c ****                 }
 199:.\Generated_Source\PSoC4/CyFlash.c ****             #endif  /* (CY_FLASH_CHECKSUM_WORKAROUND) */
 200:.\Generated_Source\PSoC4/CyFlash.c **** 
 201:.\Generated_Source\PSoC4/CyFlash.c ****             if(clkCnfRetValue == CY_SYS_FLASH_SUCCESS)
 202:.\Generated_Source\PSoC4/CyFlash.c ****             {
 203:.\Generated_Source\PSoC4/CyFlash.c ****                 clkCnfRetValue = CySysFlashClockRestore();
 204:.\Generated_Source\PSoC4/CyFlash.c ****             }
ARM GAS  C:\Users\SPITFI~1\AppData\Local\Temp\cc9g4rtH.s 			page 5


 205:.\Generated_Source\PSoC4/CyFlash.c **** 
 206:.\Generated_Source\PSoC4/CyFlash.c ****             CyExitCriticalSection(interruptState);
 207:.\Generated_Source\PSoC4/CyFlash.c ****         }
 208:.\Generated_Source\PSoC4/CyFlash.c ****     }
 209:.\Generated_Source\PSoC4/CyFlash.c ****     else
 210:.\Generated_Source\PSoC4/CyFlash.c ****     {
 211:.\Generated_Source\PSoC4/CyFlash.c ****         retValue = CY_SYS_FLASH_INVALID_ADDR;
 212:.\Generated_Source\PSoC4/CyFlash.c ****     }
 213:.\Generated_Source\PSoC4/CyFlash.c **** 
 214:.\Generated_Source\PSoC4/CyFlash.c ****     return (retValue);
 215:.\Generated_Source\PSoC4/CyFlash.c **** }
 216:.\Generated_Source\PSoC4/CyFlash.c **** 
 217:.\Generated_Source\PSoC4/CyFlash.c **** 
 218:.\Generated_Source\PSoC4/CyFlash.c **** 
 219:.\Generated_Source\PSoC4/CyFlash.c **** #if (CY_IP_FLASH_PARALLEL_PGM_EN && (CY_IP_FLASH_MACROS > 1u))
 220:.\Generated_Source\PSoC4/CyFlash.c **** /*******************************************************************************
 221:.\Generated_Source\PSoC4/CyFlash.c **** * Function Name: CySysFlashStartWriteRow
 222:.\Generated_Source\PSoC4/CyFlash.c **** ****************************************************************************//**
 223:.\Generated_Source\PSoC4/CyFlash.c **** *
 224:.\Generated_Source\PSoC4/CyFlash.c **** * Initiates a write to a row of Flash. A call to this API is non-blocking. 
 225:.\Generated_Source\PSoC4/CyFlash.c **** * Use CySysFlashResumeWriteRow() to resume flash writes and 
 226:.\Generated_Source\PSoC4/CyFlash.c **** * CySysFlashGetWriteRowStatus() to ascertain status of the write operation.
 227:.\Generated_Source\PSoC4/CyFlash.c **** *
 228:.\Generated_Source\PSoC4/CyFlash.c **** * This API is applicable only for CCG3 device families.
 229:.\Generated_Source\PSoC4/CyFlash.c **** *
 230:.\Generated_Source\PSoC4/CyFlash.c **** * For CCG3 devices, parallel code execution and programming of flash is
 231:.\Generated_Source\PSoC4/CyFlash.c **** * supported since 128k flash is available as two banks of 64k. Please refer to
 232:.\Generated_Source\PSoC4/CyFlash.c **** * the device TRM for more details.
 233:.\Generated_Source\PSoC4/CyFlash.c **** *
 234:.\Generated_Source\PSoC4/CyFlash.c **** * CCG3 devices require HFCLK to be sourced by 48 MHz IMO during flash write.
 235:.\Generated_Source\PSoC4/CyFlash.c **** * This API will modify IMO configuration; it can be later restored to original
 236:.\Generated_Source\PSoC4/CyFlash.c **** * configuration by calling \ref CySysFlashGetWriteRowStatus().
 237:.\Generated_Source\PSoC4/CyFlash.c **** *
 238:.\Generated_Source\PSoC4/CyFlash.c **** * \param rowNum The flash row number. The number of the flash rows is defined by
 239:.\Generated_Source\PSoC4/CyFlash.c **** * the \ref CY_FLASH_NUMBER_ROWS macro for the selected device. Refer to the
 240:.\Generated_Source\PSoC4/CyFlash.c **** * device datasheet for the details.
 241:.\Generated_Source\PSoC4/CyFlash.c **** * \note The target flash array is calculated based on the specified flash row.
 242:.\Generated_Source\PSoC4/CyFlash.c **** *
 243:.\Generated_Source\PSoC4/CyFlash.c **** * \param rowData Array of bytes to write. The size of the array must be equal to
 244:.\Generated_Source\PSoC4/CyFlash.c **** * the flash row size. The flash row size for the selected device is defined by
 245:.\Generated_Source\PSoC4/CyFlash.c **** * the \ref CY_FLASH_SIZEOF_ROW macro. Refer to the device datasheet for the
 246:.\Generated_Source\PSoC4/CyFlash.c **** * details.
 247:.\Generated_Source\PSoC4/CyFlash.c **** *
 248:.\Generated_Source\PSoC4/CyFlash.c **** * \return \ref group_flash_status_codes
 249:.\Generated_Source\PSoC4/CyFlash.c **** *
 250:.\Generated_Source\PSoC4/CyFlash.c **** *******************************************************************************/
 251:.\Generated_Source\PSoC4/CyFlash.c **** uint32 CySysFlashStartWriteRow(uint32 rowNum, const uint8 rowData[])
 252:.\Generated_Source\PSoC4/CyFlash.c **** {
 253:.\Generated_Source\PSoC4/CyFlash.c ****     volatile uint32 retValue = CY_SYS_FLASH_SUCCESS;
 254:.\Generated_Source\PSoC4/CyFlash.c ****     volatile uint32 parameters[(CY_FLASH_SIZEOF_ROW + CY_FLASH_SRAM_ROM_DATA) / sizeof(uint32)];
 255:.\Generated_Source\PSoC4/CyFlash.c ****     uint8  interruptState;
 256:.\Generated_Source\PSoC4/CyFlash.c **** 
 257:.\Generated_Source\PSoC4/CyFlash.c **** #if(CY_IP_SPCIF_SYNCHRONOUS)
 258:.\Generated_Source\PSoC4/CyFlash.c ****     volatile uint32 clkCnfRetValue = CY_SYS_FLASH_SUCCESS;
 259:.\Generated_Source\PSoC4/CyFlash.c **** #endif  /* (CY_IP_SPCIF_SYNCHRONOUS) */    
 260:.\Generated_Source\PSoC4/CyFlash.c **** 
 261:.\Generated_Source\PSoC4/CyFlash.c ****     if ((rowNum < CY_FLASH_NUMBER_ROWS) && (rowData != 0u))
ARM GAS  C:\Users\SPITFI~1\AppData\Local\Temp\cc9g4rtH.s 			page 6


 262:.\Generated_Source\PSoC4/CyFlash.c ****     {
 263:.\Generated_Source\PSoC4/CyFlash.c ****         /* Copy data to be written into internal variable */
 264:.\Generated_Source\PSoC4/CyFlash.c ****         (void)memcpy((void *)&parameters[2u], rowData, CY_FLASH_SIZEOF_ROW);
 265:.\Generated_Source\PSoC4/CyFlash.c **** 
 266:.\Generated_Source\PSoC4/CyFlash.c ****         /* Load Flash Bytes */
 267:.\Generated_Source\PSoC4/CyFlash.c ****         parameters[0u] = (uint32) (CY_FLASH_GET_MACRO_FROM_ROW(rowNum)        << CY_FLASH_PARAM_MAC
 268:.\Generated_Source\PSoC4/CyFlash.c ****                          (uint32) (CY_FLASH_PAGE_LATCH_START_ADDR             << CY_FLASH_PARAM_ADD
 269:.\Generated_Source\PSoC4/CyFlash.c ****                          (uint32) (CY_FLASH_KEY_TWO(CY_FLASH_API_OPCODE_LOAD) << CY_FLASH_PARAM_KEY
 270:.\Generated_Source\PSoC4/CyFlash.c ****                          CY_FLASH_KEY_ONE;
 271:.\Generated_Source\PSoC4/CyFlash.c ****         parameters[1u] = CY_FLASH_SIZEOF_ROW - 1u;
 272:.\Generated_Source\PSoC4/CyFlash.c **** 
 273:.\Generated_Source\PSoC4/CyFlash.c ****         CY_FLASH_CPUSS_SYSARG_REG = (uint32) &parameters[0u];
 274:.\Generated_Source\PSoC4/CyFlash.c ****         CY_FLASH_CPUSS_SYSREQ_REG = CY_FLASH_CPUSS_REQ_START | CY_FLASH_API_OPCODE_LOAD;
 275:.\Generated_Source\PSoC4/CyFlash.c ****         CY_NOP;
 276:.\Generated_Source\PSoC4/CyFlash.c ****         retValue = CY_FLASH_API_RETURN;
 277:.\Generated_Source\PSoC4/CyFlash.c **** 
 278:.\Generated_Source\PSoC4/CyFlash.c ****         if(retValue == CY_SYS_FLASH_SUCCESS)
 279:.\Generated_Source\PSoC4/CyFlash.c ****         {
 280:.\Generated_Source\PSoC4/CyFlash.c ****             /***************************************************************
 281:.\Generated_Source\PSoC4/CyFlash.c ****             * Mask all the exceptions to guarantee that Flash write will
 282:.\Generated_Source\PSoC4/CyFlash.c ****             * occur in the atomic way. It will not affect system call
 283:.\Generated_Source\PSoC4/CyFlash.c ****             * execution (flash row write) since it is executed in the NMI
 284:.\Generated_Source\PSoC4/CyFlash.c ****             * context.
 285:.\Generated_Source\PSoC4/CyFlash.c ****             ***************************************************************/
 286:.\Generated_Source\PSoC4/CyFlash.c ****             interruptState = CyEnterCriticalSection();
 287:.\Generated_Source\PSoC4/CyFlash.c **** 
 288:.\Generated_Source\PSoC4/CyFlash.c ****         #if(CY_IP_SPCIF_SYNCHRONOUS)
 289:.\Generated_Source\PSoC4/CyFlash.c ****             clkCnfRetValue = CySysFlashClockBackup();
 290:.\Generated_Source\PSoC4/CyFlash.c ****             
 291:.\Generated_Source\PSoC4/CyFlash.c ****             if(clkCnfRetValue == CY_SYS_FLASH_SUCCESS)
 292:.\Generated_Source\PSoC4/CyFlash.c ****             {
 293:.\Generated_Source\PSoC4/CyFlash.c ****                 retValue = CySysFlashClockConfig();
 294:.\Generated_Source\PSoC4/CyFlash.c ****             }
 295:.\Generated_Source\PSoC4/CyFlash.c ****         #else
 296:.\Generated_Source\PSoC4/CyFlash.c ****             CySysFlashClockBackup();
 297:.\Generated_Source\PSoC4/CyFlash.c ****         #endif  /* (CY_IP_SPCIF_SYNCHRONOUS) */
 298:.\Generated_Source\PSoC4/CyFlash.c **** 
 299:.\Generated_Source\PSoC4/CyFlash.c ****             if(retValue == CY_SYS_FLASH_SUCCESS)
 300:.\Generated_Source\PSoC4/CyFlash.c ****             {
 301:.\Generated_Source\PSoC4/CyFlash.c ****                 /* Non-blocking Write Row */
 302:.\Generated_Source\PSoC4/CyFlash.c ****                 parameters[0u]  = (uint32) (((uint32) CY_FLASH_KEY_TWO(CY_FLASH_API_OPCODE_NON_BLOC
 303:.\Generated_Source\PSoC4/CyFlash.c ****                                                         CY_FLASH_PARAM_KEY_TWO_OFFSET) | CY_FLASH_K
 304:.\Generated_Source\PSoC4/CyFlash.c ****                 parameters[0u] |= (uint32)(rowNum << 16u);
 305:.\Generated_Source\PSoC4/CyFlash.c **** 
 306:.\Generated_Source\PSoC4/CyFlash.c ****                 CY_FLASH_CPUSS_SYSARG_REG = (uint32) &parameters[0u];
 307:.\Generated_Source\PSoC4/CyFlash.c ****                 CY_FLASH_CPUSS_SYSREQ_REG = CY_FLASH_CPUSS_REQ_START | CY_FLASH_API_OPCODE_NON_BLOC
 308:.\Generated_Source\PSoC4/CyFlash.c ****                 CY_NOP;
 309:.\Generated_Source\PSoC4/CyFlash.c ****                 retValue = CY_FLASH_API_RETURN;
 310:.\Generated_Source\PSoC4/CyFlash.c ****             }
 311:.\Generated_Source\PSoC4/CyFlash.c **** 
 312:.\Generated_Source\PSoC4/CyFlash.c ****             CyExitCriticalSection(interruptState);
 313:.\Generated_Source\PSoC4/CyFlash.c ****         }
 314:.\Generated_Source\PSoC4/CyFlash.c ****     }
 315:.\Generated_Source\PSoC4/CyFlash.c ****     else
 316:.\Generated_Source\PSoC4/CyFlash.c ****     {
 317:.\Generated_Source\PSoC4/CyFlash.c ****         retValue = CY_SYS_FLASH_INVALID_ADDR;
 318:.\Generated_Source\PSoC4/CyFlash.c ****     }
ARM GAS  C:\Users\SPITFI~1\AppData\Local\Temp\cc9g4rtH.s 			page 7


 319:.\Generated_Source\PSoC4/CyFlash.c **** 
 320:.\Generated_Source\PSoC4/CyFlash.c ****     return (retValue);
 321:.\Generated_Source\PSoC4/CyFlash.c **** }
 322:.\Generated_Source\PSoC4/CyFlash.c **** 
 323:.\Generated_Source\PSoC4/CyFlash.c **** 
 324:.\Generated_Source\PSoC4/CyFlash.c **** /*******************************************************************************
 325:.\Generated_Source\PSoC4/CyFlash.c **** * Function Name: CySysFlashGetWriteRowStatus
 326:.\Generated_Source\PSoC4/CyFlash.c **** ****************************************************************************//**
 327:.\Generated_Source\PSoC4/CyFlash.c **** *
 328:.\Generated_Source\PSoC4/CyFlash.c **** * Returns the current status of the flash write operation.
 329:.\Generated_Source\PSoC4/CyFlash.c **** *
 330:.\Generated_Source\PSoC4/CyFlash.c **** * This API is applicable only for CCG3 device families.
 331:.\Generated_Source\PSoC4/CyFlash.c **** *
 332:.\Generated_Source\PSoC4/CyFlash.c **** * For CCG3 devices, parallel code execution and programming of flash is
 333:.\Generated_Source\PSoC4/CyFlash.c **** * supported since 128k flash is available as two banks of 64k. Please refer to
 334:.\Generated_Source\PSoC4/CyFlash.c **** * the device TRM for more details.
 335:.\Generated_Source\PSoC4/CyFlash.c **** *
 336:.\Generated_Source\PSoC4/CyFlash.c **** * CCG3 devices require HFCLK to be sourced by 48 MHz IMO during flash write.
 337:.\Generated_Source\PSoC4/CyFlash.c **** * This API will restore original IMO configuration; that has been earlier
 338:.\Generated_Source\PSoC4/CyFlash.c **** * modified by \ref CySysFlashStartWriteRow().
 339:.\Generated_Source\PSoC4/CyFlash.c **** *
 340:.\Generated_Source\PSoC4/CyFlash.c **** * \return \ref group_flash_status_codes
 341:.\Generated_Source\PSoC4/CyFlash.c **** *
 342:.\Generated_Source\PSoC4/CyFlash.c **** *******************************************************************************/
 343:.\Generated_Source\PSoC4/CyFlash.c **** uint32 CySysFlashGetWriteRowStatus(void)
 344:.\Generated_Source\PSoC4/CyFlash.c **** {
 345:.\Generated_Source\PSoC4/CyFlash.c ****     volatile uint32 retValue = CY_SYS_FLASH_SUCCESS;
 346:.\Generated_Source\PSoC4/CyFlash.c **** 
 347:.\Generated_Source\PSoC4/CyFlash.c ****     CY_NOP;
 348:.\Generated_Source\PSoC4/CyFlash.c ****     retValue = CY_FLASH_API_RETURN;
 349:.\Generated_Source\PSoC4/CyFlash.c **** 
 350:.\Generated_Source\PSoC4/CyFlash.c ****     (void) CySysFlashClockRestore();
 351:.\Generated_Source\PSoC4/CyFlash.c **** 
 352:.\Generated_Source\PSoC4/CyFlash.c ****     return (retValue);
 353:.\Generated_Source\PSoC4/CyFlash.c **** }
 354:.\Generated_Source\PSoC4/CyFlash.c **** 
 355:.\Generated_Source\PSoC4/CyFlash.c **** 
 356:.\Generated_Source\PSoC4/CyFlash.c **** 
 357:.\Generated_Source\PSoC4/CyFlash.c **** /*******************************************************************************
 358:.\Generated_Source\PSoC4/CyFlash.c **** * Function Name: CySysFlashResumeWriteRow
 359:.\Generated_Source\PSoC4/CyFlash.c **** ****************************************************************************//**
 360:.\Generated_Source\PSoC4/CyFlash.c **** *
 361:.\Generated_Source\PSoC4/CyFlash.c **** * This API must be called, once the SPC interrupt is triggered to complete the
 362:.\Generated_Source\PSoC4/CyFlash.c **** * non-blocking operation. It is advised not to prolong calling this API for
 363:.\Generated_Source\PSoC4/CyFlash.c **** * more than 25 ms.
 364:.\Generated_Source\PSoC4/CyFlash.c **** *
 365:.\Generated_Source\PSoC4/CyFlash.c **** * The non-blocking write row API \ref CySysFlashStartWriteRow() requires that
 366:.\Generated_Source\PSoC4/CyFlash.c **** * this API be called 3 times to complete the write. This can be done by
 367:.\Generated_Source\PSoC4/CyFlash.c **** * configuring SPCIF interrupt and placing a call to this API.
 368:.\Generated_Source\PSoC4/CyFlash.c **** *
 369:.\Generated_Source\PSoC4/CyFlash.c **** * For CM0 based device, a non-blocking call to program a row of macro 0
 370:.\Generated_Source\PSoC4/CyFlash.c **** * requires the user to set the CPUSS_CONFIG.VECS_IN_RAM bit so that the
 371:.\Generated_Source\PSoC4/CyFlash.c **** * interrupt vector for the SPC is fetched from the SRAM rather than the FLASH.
 372:.\Generated_Source\PSoC4/CyFlash.c **** *
 373:.\Generated_Source\PSoC4/CyFlash.c **** * For CM0+ based device, if the user wants to keep the vector table in flash
 374:.\Generated_Source\PSoC4/CyFlash.c **** * when performing non-blocking flash write then they need to make sure the
 375:.\Generated_Source\PSoC4/CyFlash.c **** * vector table is placed in the flash macro which is not getting programmed by
ARM GAS  C:\Users\SPITFI~1\AppData\Local\Temp\cc9g4rtH.s 			page 8


 376:.\Generated_Source\PSoC4/CyFlash.c **** * configuring the VTOR register.
 377:.\Generated_Source\PSoC4/CyFlash.c **** *
 378:.\Generated_Source\PSoC4/CyFlash.c **** * This API is applicable only for CCG3 device families.
 379:.\Generated_Source\PSoC4/CyFlash.c **** *
 380:.\Generated_Source\PSoC4/CyFlash.c **** * \return \ref group_flash_status_codes
 381:.\Generated_Source\PSoC4/CyFlash.c **** *
 382:.\Generated_Source\PSoC4/CyFlash.c **** * \note Please consult the example project NonBlockingFlashWrite_Example for an
 383:.\Generated_Source\PSoC4/CyFlash.c **** * implementation.
 384:.\Generated_Source\PSoC4/CyFlash.c **** *
 385:.\Generated_Source\PSoC4/CyFlash.c **** *******************************************************************************/
 386:.\Generated_Source\PSoC4/CyFlash.c **** uint32 CySysFlashResumeWriteRow(void)
 387:.\Generated_Source\PSoC4/CyFlash.c **** {
 388:.\Generated_Source\PSoC4/CyFlash.c ****     volatile uint32 retValue = CY_SYS_FLASH_SUCCESS;
 389:.\Generated_Source\PSoC4/CyFlash.c ****     static volatile uint32 parameters[1u];
 390:.\Generated_Source\PSoC4/CyFlash.c **** 
 391:.\Generated_Source\PSoC4/CyFlash.c ****     /* Resume */
 392:.\Generated_Source\PSoC4/CyFlash.c ****     parameters[0u] = (uint32) (((uint32) CY_FLASH_KEY_TWO(CY_FLASH_API_OPCODE_RESUME_NON_BLOCKING) 
 393:.\Generated_Source\PSoC4/CyFlash.c ****                                          CY_FLASH_PARAM_KEY_TWO_OFFSET) | CY_FLASH_KEY_ONE);
 394:.\Generated_Source\PSoC4/CyFlash.c ****     CY_FLASH_CPUSS_SYSARG_REG = (uint32) &parameters[0u];
 395:.\Generated_Source\PSoC4/CyFlash.c ****     CY_FLASH_CPUSS_SYSREQ_REG = CY_FLASH_CPUSS_REQ_START | CY_FLASH_API_OPCODE_RESUME_NON_BLOCKING;
 396:.\Generated_Source\PSoC4/CyFlash.c ****     
 397:.\Generated_Source\PSoC4/CyFlash.c ****     CY_NOP;
 398:.\Generated_Source\PSoC4/CyFlash.c ****     retValue = CY_FLASH_API_RETURN;
 399:.\Generated_Source\PSoC4/CyFlash.c ****     
 400:.\Generated_Source\PSoC4/CyFlash.c ****     return (retValue);
 401:.\Generated_Source\PSoC4/CyFlash.c **** }
 402:.\Generated_Source\PSoC4/CyFlash.c **** 
 403:.\Generated_Source\PSoC4/CyFlash.c **** #endif /* (CY_IP_FLASH_PARALLEL_PGM_EN && (CY_IP_FLASH_MACROS > 1u)) */
 404:.\Generated_Source\PSoC4/CyFlash.c **** 
 405:.\Generated_Source\PSoC4/CyFlash.c **** 
 406:.\Generated_Source\PSoC4/CyFlash.c **** /*******************************************************************************
 407:.\Generated_Source\PSoC4/CyFlash.c **** * Function Name: CySysFlashSetWaitCycles
 408:.\Generated_Source\PSoC4/CyFlash.c **** ****************************************************************************//**
 409:.\Generated_Source\PSoC4/CyFlash.c **** *
 410:.\Generated_Source\PSoC4/CyFlash.c **** * Sets the number of clock cycles the cache will wait before it samples data
 411:.\Generated_Source\PSoC4/CyFlash.c **** * coming back from Flash. This function must be called before increasing the
 412:.\Generated_Source\PSoC4/CyFlash.c **** * SYSCLK clock frequency. It can optionally be called after lowering SYSCLK
 413:.\Generated_Source\PSoC4/CyFlash.c **** * clock frequency in order to improve the CPU performance.
 414:.\Generated_Source\PSoC4/CyFlash.c **** *
 415:.\Generated_Source\PSoC4/CyFlash.c **** * \param freq The System clock frequency in MHz.
 416:.\Generated_Source\PSoC4/CyFlash.c **** *
 417:.\Generated_Source\PSoC4/CyFlash.c **** * \note Invalid frequency will be ignored in Release mode and the CPU will be
 418:.\Generated_Source\PSoC4/CyFlash.c **** * halted if project is compiled in Debug mode.
 419:.\Generated_Source\PSoC4/CyFlash.c **** *
 420:.\Generated_Source\PSoC4/CyFlash.c **** *******************************************************************************/
 421:.\Generated_Source\PSoC4/CyFlash.c **** void CySysFlashSetWaitCycles(uint32 freq)
 422:.\Generated_Source\PSoC4/CyFlash.c **** {
 423:.\Generated_Source\PSoC4/CyFlash.c ****     uint8  interruptState;
 424:.\Generated_Source\PSoC4/CyFlash.c **** 
 425:.\Generated_Source\PSoC4/CyFlash.c ****     interruptState = CyEnterCriticalSection();
 426:.\Generated_Source\PSoC4/CyFlash.c **** 
 427:.\Generated_Source\PSoC4/CyFlash.c ****     #if (CY_IP_CPUSS)
 428:.\Generated_Source\PSoC4/CyFlash.c **** 
 429:.\Generated_Source\PSoC4/CyFlash.c ****         if ( freq <= CY_FLASH_SYSCLK_BOUNDARY_MHZ )
 430:.\Generated_Source\PSoC4/CyFlash.c ****         {
 431:.\Generated_Source\PSoC4/CyFlash.c ****             CY_SYS_CLK_SELECT_REG &= (uint32)(~CY_FLASH_WAIT_STATE_EN);
 432:.\Generated_Source\PSoC4/CyFlash.c ****         }
ARM GAS  C:\Users\SPITFI~1\AppData\Local\Temp\cc9g4rtH.s 			page 9


 433:.\Generated_Source\PSoC4/CyFlash.c ****         else
 434:.\Generated_Source\PSoC4/CyFlash.c ****         {
 435:.\Generated_Source\PSoC4/CyFlash.c ****             CY_SYS_CLK_SELECT_REG |= CY_FLASH_WAIT_STATE_EN;
 436:.\Generated_Source\PSoC4/CyFlash.c ****         }
 437:.\Generated_Source\PSoC4/CyFlash.c ****     #else
 438:.\Generated_Source\PSoC4/CyFlash.c ****         #if (CY_IP_CPUSS_FLASHC_PRESENT)
 439:.\Generated_Source\PSoC4/CyFlash.c ****             /* CY_IP_FM and CY_IP_FS */
 440:.\Generated_Source\PSoC4/CyFlash.c ****             if (freq <= CY_FLASH_CTL_WS_0_FREQ_MAX)
 441:.\Generated_Source\PSoC4/CyFlash.c ****             {
 442:.\Generated_Source\PSoC4/CyFlash.c ****                 CY_FLASH_CTL_REG = (CY_FLASH_CTL_REG & ~CY_FLASH_CTL_WS_MASK) | CY_FLASH_CTL_WS_0_V
 443:.\Generated_Source\PSoC4/CyFlash.c ****             } else
 444:.\Generated_Source\PSoC4/CyFlash.c ****             if (freq <= CY_FLASH_CTL_WS_1_FREQ_MAX)
 445:.\Generated_Source\PSoC4/CyFlash.c ****             {
 446:.\Generated_Source\PSoC4/CyFlash.c ****                 CY_FLASH_CTL_REG = (CY_FLASH_CTL_REG & ~CY_FLASH_CTL_WS_MASK) | CY_FLASH_CTL_WS_1_V
 447:.\Generated_Source\PSoC4/CyFlash.c ****             } else
 448:.\Generated_Source\PSoC4/CyFlash.c ****             #if (CY_IP_FMLT || CY_IP_FSLT)
 449:.\Generated_Source\PSoC4/CyFlash.c ****                 if (freq <= CY_FLASH_CTL_WS_2_FREQ_MAX)
 450:.\Generated_Source\PSoC4/CyFlash.c ****                 {
 451:.\Generated_Source\PSoC4/CyFlash.c ****                     CY_FLASH_CTL_REG = (CY_FLASH_CTL_REG & ~CY_FLASH_CTL_WS_MASK) | CY_FLASH_CTL_WS
 452:.\Generated_Source\PSoC4/CyFlash.c ****                 }
 453:.\Generated_Source\PSoC4/CyFlash.c ****                 else
 454:.\Generated_Source\PSoC4/CyFlash.c ****             #endif  /* (CY_IP_FMLT || CY_IP_FSLT) */
 455:.\Generated_Source\PSoC4/CyFlash.c ****         #endif /* (CY_IP_CPUSS_FLASHC_PRESENT) */
 456:.\Generated_Source\PSoC4/CyFlash.c ****         {
 457:.\Generated_Source\PSoC4/CyFlash.c ****             /* Halt CPU in debug mode if frequency is invalid */
 458:.\Generated_Source\PSoC4/CyFlash.c ****             CYASSERT(0u != 0u);
 459:.\Generated_Source\PSoC4/CyFlash.c ****         }
 460:.\Generated_Source\PSoC4/CyFlash.c **** 
 461:.\Generated_Source\PSoC4/CyFlash.c ****     #endif  /* (CY_IP_CPUSS) */
 462:.\Generated_Source\PSoC4/CyFlash.c **** 
 463:.\Generated_Source\PSoC4/CyFlash.c ****     CyExitCriticalSection(interruptState);
 464:.\Generated_Source\PSoC4/CyFlash.c **** }
 465:.\Generated_Source\PSoC4/CyFlash.c **** 
 466:.\Generated_Source\PSoC4/CyFlash.c **** 
 467:.\Generated_Source\PSoC4/CyFlash.c **** #if (CY_SFLASH_XTRA_ROWS)
 468:.\Generated_Source\PSoC4/CyFlash.c **** /*******************************************************************************
 469:.\Generated_Source\PSoC4/CyFlash.c **** * Function Name: CySysSFlashWriteUserRow
 470:.\Generated_Source\PSoC4/CyFlash.c **** ****************************************************************************//**
 471:.\Generated_Source\PSoC4/CyFlash.c **** *
 472:.\Generated_Source\PSoC4/CyFlash.c **** * Writes data to a row of SFlash user configurable area.
 473:.\Generated_Source\PSoC4/CyFlash.c **** *
 474:.\Generated_Source\PSoC4/CyFlash.c **** * This API is applicable for PSoC 4100 BLE, PSoC 4200 BLE, PSoC 4100M,
 475:.\Generated_Source\PSoC4/CyFlash.c **** * PSoC 4200M, and PSoC 4200L family of devices.
 476:.\Generated_Source\PSoC4/CyFlash.c **** *
 477:.\Generated_Source\PSoC4/CyFlash.c **** * \param rowNum The flash row number. The flash row number. The number of the
 478:.\Generated_Source\PSoC4/CyFlash.c **** * flash rows is defined by the CY_SFLASH_NUMBER_USERROWS macro for the selected
 479:.\Generated_Source\PSoC4/CyFlash.c **** * device. Valid range is 0-3. Refer to the device TRM for details.
 480:.\Generated_Source\PSoC4/CyFlash.c **** *
 481:.\Generated_Source\PSoC4/CyFlash.c **** * \param rowData Array of bytes to write. The size of the array must be equal to
 482:.\Generated_Source\PSoC4/CyFlash.c **** * the flash row size. The flash row size for the selected device is defined by
 483:.\Generated_Source\PSoC4/CyFlash.c **** * the \ref CY_SFLASH_SIZEOF_USERROW macro. Refer to the device TRM for the
 484:.\Generated_Source\PSoC4/CyFlash.c **** * details.
 485:.\Generated_Source\PSoC4/CyFlash.c **** *
 486:.\Generated_Source\PSoC4/CyFlash.c **** * \return \ref group_flash_status_codes
 487:.\Generated_Source\PSoC4/CyFlash.c **** *
 488:.\Generated_Source\PSoC4/CyFlash.c **** *******************************************************************************/
 489:.\Generated_Source\PSoC4/CyFlash.c **** uint32 CySysSFlashWriteUserRow(uint32 rowNum, const uint8 rowData[])
ARM GAS  C:\Users\SPITFI~1\AppData\Local\Temp\cc9g4rtH.s 			page 10


 490:.\Generated_Source\PSoC4/CyFlash.c **** {
 491:.\Generated_Source\PSoC4/CyFlash.c ****     volatile uint32 retValue = CY_SYS_FLASH_SUCCESS;
 492:.\Generated_Source\PSoC4/CyFlash.c ****     volatile uint32 clkCnfRetValue = CY_SYS_FLASH_SUCCESS;
 493:.\Generated_Source\PSoC4/CyFlash.c ****     volatile uint32 parameters[(CY_FLASH_SIZEOF_ROW + CY_FLASH_SRAM_ROM_DATA)/4u];
 494:.\Generated_Source\PSoC4/CyFlash.c ****     uint8  interruptState;
 495:.\Generated_Source\PSoC4/CyFlash.c **** 
 496:.\Generated_Source\PSoC4/CyFlash.c **** 
 497:.\Generated_Source\PSoC4/CyFlash.c ****     if ((rowNum < CY_SFLASH_NUMBER_USERROWS) && (rowData != 0u))
 498:.\Generated_Source\PSoC4/CyFlash.c ****     {
 499:.\Generated_Source\PSoC4/CyFlash.c ****         /* Load Flash Bytes */
 500:.\Generated_Source\PSoC4/CyFlash.c ****         parameters[0u] = (uint32) (CY_FLASH_GET_MACRO_FROM_ROW(rowNum)        << CY_FLASH_PARAM_MAC
 501:.\Generated_Source\PSoC4/CyFlash.c ****                          (uint32) (CY_FLASH_PAGE_LATCH_START_ADDR             << CY_FLASH_PARAM_ADD
 502:.\Generated_Source\PSoC4/CyFlash.c ****                          (uint32) (CY_FLASH_KEY_TWO(CY_FLASH_API_OPCODE_LOAD) << CY_FLASH_PARAM_KEY
 503:.\Generated_Source\PSoC4/CyFlash.c ****                          CY_FLASH_KEY_ONE;
 504:.\Generated_Source\PSoC4/CyFlash.c ****         parameters[1u] = CY_FLASH_SIZEOF_ROW - 1u;
 505:.\Generated_Source\PSoC4/CyFlash.c **** 
 506:.\Generated_Source\PSoC4/CyFlash.c ****         (void)memcpy((void *)&parameters[2u], rowData, CY_FLASH_SIZEOF_ROW);
 507:.\Generated_Source\PSoC4/CyFlash.c ****         CY_FLASH_CPUSS_SYSARG_REG = (uint32) &parameters[0u];
 508:.\Generated_Source\PSoC4/CyFlash.c ****         CY_FLASH_CPUSS_SYSREQ_REG = CY_FLASH_CPUSS_REQ_START | CY_FLASH_API_OPCODE_LOAD;
 509:.\Generated_Source\PSoC4/CyFlash.c ****         CY_NOP;
 510:.\Generated_Source\PSoC4/CyFlash.c ****         retValue = CY_FLASH_API_RETURN;
 511:.\Generated_Source\PSoC4/CyFlash.c **** 
 512:.\Generated_Source\PSoC4/CyFlash.c ****         if(retValue == CY_SYS_FLASH_SUCCESS)
 513:.\Generated_Source\PSoC4/CyFlash.c ****         {
 514:.\Generated_Source\PSoC4/CyFlash.c ****             /***************************************************************
 515:.\Generated_Source\PSoC4/CyFlash.c ****             * Mask all the exceptions to guarantee that Flash write will
 516:.\Generated_Source\PSoC4/CyFlash.c ****             * occur in the atomic way. It will not affect system call
 517:.\Generated_Source\PSoC4/CyFlash.c ****             * execution (flash row write) since it is executed in the NMI
 518:.\Generated_Source\PSoC4/CyFlash.c ****             * context.
 519:.\Generated_Source\PSoC4/CyFlash.c ****             ***************************************************************/
 520:.\Generated_Source\PSoC4/CyFlash.c ****             interruptState = CyEnterCriticalSection();
 521:.\Generated_Source\PSoC4/CyFlash.c **** 
 522:.\Generated_Source\PSoC4/CyFlash.c ****             clkCnfRetValue = CySysFlashClockBackup();
 523:.\Generated_Source\PSoC4/CyFlash.c **** 
 524:.\Generated_Source\PSoC4/CyFlash.c ****         #if(CY_IP_SPCIF_SYNCHRONOUS)
 525:.\Generated_Source\PSoC4/CyFlash.c ****             if(clkCnfRetValue == CY_SYS_FLASH_SUCCESS)
 526:.\Generated_Source\PSoC4/CyFlash.c ****             {
 527:.\Generated_Source\PSoC4/CyFlash.c ****                 retValue = CySysFlashClockConfig();
 528:.\Generated_Source\PSoC4/CyFlash.c ****             }
 529:.\Generated_Source\PSoC4/CyFlash.c ****         #endif  /* (CY_IP_SPCIF_SYNCHRONOUS) */
 530:.\Generated_Source\PSoC4/CyFlash.c **** 
 531:.\Generated_Source\PSoC4/CyFlash.c ****             if(retValue == CY_SYS_FLASH_SUCCESS)
 532:.\Generated_Source\PSoC4/CyFlash.c ****             {
 533:.\Generated_Source\PSoC4/CyFlash.c ****                 /* Write User Sflash Row */
 534:.\Generated_Source\PSoC4/CyFlash.c ****                 parameters[0u]  = (uint32) (((uint32) CY_FLASH_KEY_TWO(CY_FLASH_API_OPCODE_WRITE_SF
 535:.\Generated_Source\PSoC4/CyFlash.c ****                 parameters[1u] = (uint32) rowNum;
 536:.\Generated_Source\PSoC4/CyFlash.c **** 
 537:.\Generated_Source\PSoC4/CyFlash.c ****                 CY_FLASH_CPUSS_SYSARG_REG = (uint32) &parameters[0u];
 538:.\Generated_Source\PSoC4/CyFlash.c ****                 CY_FLASH_CPUSS_SYSREQ_REG = CY_FLASH_CPUSS_REQ_START | CY_FLASH_API_OPCODE_WRITE_SF
 539:.\Generated_Source\PSoC4/CyFlash.c ****                 CY_NOP;
 540:.\Generated_Source\PSoC4/CyFlash.c ****                 retValue = CY_FLASH_API_RETURN;
 541:.\Generated_Source\PSoC4/CyFlash.c ****             }
 542:.\Generated_Source\PSoC4/CyFlash.c **** 
 543:.\Generated_Source\PSoC4/CyFlash.c ****             if(clkCnfRetValue == CY_SYS_FLASH_SUCCESS)
 544:.\Generated_Source\PSoC4/CyFlash.c ****             {
 545:.\Generated_Source\PSoC4/CyFlash.c ****                 clkCnfRetValue = CySysFlashClockRestore();
 546:.\Generated_Source\PSoC4/CyFlash.c ****             }
ARM GAS  C:\Users\SPITFI~1\AppData\Local\Temp\cc9g4rtH.s 			page 11


 547:.\Generated_Source\PSoC4/CyFlash.c ****             CyExitCriticalSection(interruptState);
 548:.\Generated_Source\PSoC4/CyFlash.c ****         }
 549:.\Generated_Source\PSoC4/CyFlash.c ****     }
 550:.\Generated_Source\PSoC4/CyFlash.c ****     else
 551:.\Generated_Source\PSoC4/CyFlash.c ****     {
 552:.\Generated_Source\PSoC4/CyFlash.c ****         retValue = CY_SYS_FLASH_INVALID_ADDR;
 553:.\Generated_Source\PSoC4/CyFlash.c ****     }
 554:.\Generated_Source\PSoC4/CyFlash.c **** 
 555:.\Generated_Source\PSoC4/CyFlash.c ****     return (retValue);
 556:.\Generated_Source\PSoC4/CyFlash.c **** }
 557:.\Generated_Source\PSoC4/CyFlash.c **** #endif /* (CY_SFLASH_XTRA_ROWS) */
 558:.\Generated_Source\PSoC4/CyFlash.c **** 
 559:.\Generated_Source\PSoC4/CyFlash.c **** 
 560:.\Generated_Source\PSoC4/CyFlash.c **** /*******************************************************************************
 561:.\Generated_Source\PSoC4/CyFlash.c **** * Function Name: CySysFlashClockBackup
 562:.\Generated_Source\PSoC4/CyFlash.c **** ****************************************************************************//**
 563:.\Generated_Source\PSoC4/CyFlash.c **** *
 564:.\Generated_Source\PSoC4/CyFlash.c **** * Backups the device clock configuration.
 565:.\Generated_Source\PSoC4/CyFlash.c **** *
 566:.\Generated_Source\PSoC4/CyFlash.c **** * \return The same as \ref CySysFlashWriteRow().
 567:.\Generated_Source\PSoC4/CyFlash.c **** *
 568:.\Generated_Source\PSoC4/CyFlash.c **** *******************************************************************************/
 569:.\Generated_Source\PSoC4/CyFlash.c **** static cystatus CySysFlashClockBackup(void)
 570:.\Generated_Source\PSoC4/CyFlash.c **** {
  25              		.loc 1 570 0
  26              		.cfi_startproc
  27              	.LVL0:
 571:.\Generated_Source\PSoC4/CyFlash.c ****     cystatus retValue = CY_SYS_FLASH_SUCCESS;
 572:.\Generated_Source\PSoC4/CyFlash.c **** #if(!CY_IP_FM)
 573:.\Generated_Source\PSoC4/CyFlash.c ****     #if !(CY_PSOC4_4000)
 574:.\Generated_Source\PSoC4/CyFlash.c ****         #if (CY_IP_SPCIF_SYNCHRONOUS)
 575:.\Generated_Source\PSoC4/CyFlash.c ****             volatile uint32   parameters[2u];
 576:.\Generated_Source\PSoC4/CyFlash.c ****         #endif /* (CY_IP_SPCIF_SYNCHRONOUS) */
 577:.\Generated_Source\PSoC4/CyFlash.c ****     #endif  /* !(CY_PSOC4_4000) */
 578:.\Generated_Source\PSoC4/CyFlash.c **** #endif  /* (!CY_IP_FM) */
 579:.\Generated_Source\PSoC4/CyFlash.c **** 
 580:.\Generated_Source\PSoC4/CyFlash.c **** #if(CY_IP_FM)
 581:.\Generated_Source\PSoC4/CyFlash.c **** 
 582:.\Generated_Source\PSoC4/CyFlash.c ****     /***************************************************************
 583:.\Generated_Source\PSoC4/CyFlash.c ****     * Preserve IMO configuration that could be changed during
 584:.\Generated_Source\PSoC4/CyFlash.c ****     * system call execution (Cypress ID #150448).
 585:.\Generated_Source\PSoC4/CyFlash.c ****     ***************************************************************/
 586:.\Generated_Source\PSoC4/CyFlash.c ****     cySysFlashBackup.imoConfigReg = CY_SYS_CLK_IMO_CONFIG_REG;
 587:.\Generated_Source\PSoC4/CyFlash.c **** 
 588:.\Generated_Source\PSoC4/CyFlash.c **** #else   /* (CY_IP_FMLT) */
 589:.\Generated_Source\PSoC4/CyFlash.c **** 
 590:.\Generated_Source\PSoC4/CyFlash.c ****     #if (CY_PSOC4_4000)
 591:.\Generated_Source\PSoC4/CyFlash.c **** 
 592:.\Generated_Source\PSoC4/CyFlash.c ****         /***************************************************************************
 593:.\Generated_Source\PSoC4/CyFlash.c ****         * Perform firmware clock settings backup for the PSOC4 4000 devices (the
 594:.\Generated_Source\PSoC4/CyFlash.c ****         * corresponding system call is not available).
 595:.\Generated_Source\PSoC4/CyFlash.c ****         ***************************************************************************/
 596:.\Generated_Source\PSoC4/CyFlash.c **** 
 597:.\Generated_Source\PSoC4/CyFlash.c ****         /***************************************************************************
 598:.\Generated_Source\PSoC4/CyFlash.c ****         * The registers listed below are modified by CySysFlashClockConfig().
 599:.\Generated_Source\PSoC4/CyFlash.c ****         *
 600:.\Generated_Source\PSoC4/CyFlash.c ****         * The registers to be saved:
ARM GAS  C:\Users\SPITFI~1\AppData\Local\Temp\cc9g4rtH.s 			page 12


 601:.\Generated_Source\PSoC4/CyFlash.c ****         * - CY_SYS_CLK_IMO_CONFIG_REG - IMO enable state.
 602:.\Generated_Source\PSoC4/CyFlash.c ****         * - CY_SYS_CLK_SELECT_REG     - HFCLK source, divider, pump source. Save
 603:.\Generated_Source\PSoC4/CyFlash.c ****         *                               entire register as it can be directly
 604:.\Generated_Source\PSoC4/CyFlash.c ****         *                               written on restore (no special
 605:.\Generated_Source\PSoC4/CyFlash.c ****         *                               requirements).
 606:.\Generated_Source\PSoC4/CyFlash.c ****         * - CY_SYS_CLK_IMO_SELECT_REG - Save IMO frequency.
 607:.\Generated_Source\PSoC4/CyFlash.c ****         *
 608:.\Generated_Source\PSoC4/CyFlash.c ****         * The registers not to be saved:
 609:.\Generated_Source\PSoC4/CyFlash.c ****         * - CY_SYS_CLK_IMO_TRIM1_REG  - No need to save. Function of frequency.
 610:.\Generated_Source\PSoC4/CyFlash.c ****         *                               Restored by CySysClkWriteImoFreq().
 611:.\Generated_Source\PSoC4/CyFlash.c ****         * - CY_SYS_CLK_IMO_TRIM3_REG  - No need to save. Function of frequency.
 612:.\Generated_Source\PSoC4/CyFlash.c ****         *                               Restored by CySysClkWriteImoFreq().
 613:.\Generated_Source\PSoC4/CyFlash.c ****         * - REG_CPUSS_FLASH_CTL       - Flash wait cycles. Unmodified due to system
 614:.\Generated_Source\PSoC4/CyFlash.c ****         *                               clock 16 MHz limit.
 615:.\Generated_Source\PSoC4/CyFlash.c ****         ***************************************************************************/
 616:.\Generated_Source\PSoC4/CyFlash.c **** 
 617:.\Generated_Source\PSoC4/CyFlash.c ****         cySysFlashBackup.clkSelectReg = CY_SYS_CLK_SELECT_REG;
  28              		.loc 1 617 0
  29 0000 074B     		ldr	r3, .L2
  30 0002 1B68     		ldr	r3, [r3]
  31 0004 074A     		ldr	r2, .L2+4
  32 0006 1360     		str	r3, [r2]
 618:.\Generated_Source\PSoC4/CyFlash.c ****         cySysFlashBackup.clkImoEna    = CY_SYS_CLK_IMO_CONFIG_REG & CY_SYS_CLK_IMO_CONFIG_ENABLE;
  33              		.loc 1 618 0
  34 0008 074B     		ldr	r3, .L2+8
  35 000a 1B68     		ldr	r3, [r3]
  36 000c DB0F     		lsr	r3, r3, #31
  37 000e DB07     		lsl	r3, r3, #31
  38 0010 5360     		str	r3, [r2, #4]
 619:.\Generated_Source\PSoC4/CyFlash.c ****         cySysFlashBackup.clkImoFreq   = CY_SYS_CLK_IMO_MIN_FREQ_MHZ + (CY_SYS_CLK_IMO_SELECT_REG <<
  39              		.loc 1 619 0
  40 0012 064B     		ldr	r3, .L2+12
  41 0014 1B68     		ldr	r3, [r3]
  42 0016 9B00     		lsl	r3, r3, #2
  43 0018 1833     		add	r3, r3, #24
  44 001a 9360     		str	r3, [r2, #8]
 620:.\Generated_Source\PSoC4/CyFlash.c **** 
 621:.\Generated_Source\PSoC4/CyFlash.c ****     #else
 622:.\Generated_Source\PSoC4/CyFlash.c **** 
 623:.\Generated_Source\PSoC4/CyFlash.c ****         #if (CY_IP_SPCIF_SYNCHRONOUS)
 624:.\Generated_Source\PSoC4/CyFlash.c ****             /* FM-Lite Clock Backup System Call */
 625:.\Generated_Source\PSoC4/CyFlash.c ****             parameters[0u] =
 626:.\Generated_Source\PSoC4/CyFlash.c ****                 (uint32) ((CY_FLASH_KEY_TWO(CY_FLASH_API_OPCODE_CLK_BACKUP) <<  CY_FLASH_PARAM_KEY_
 627:.\Generated_Source\PSoC4/CyFlash.c ****                             CY_FLASH_KEY_ONE);
 628:.\Generated_Source\PSoC4/CyFlash.c ****             parameters[1u] = (uint32) &cySysFlashBackup.clockSettings[0u];
 629:.\Generated_Source\PSoC4/CyFlash.c ****             CY_FLASH_CPUSS_SYSARG_REG = (uint32) &parameters[0u];
 630:.\Generated_Source\PSoC4/CyFlash.c ****             CY_FLASH_CPUSS_SYSREQ_REG = CY_FLASH_CPUSS_REQ_START | CY_FLASH_API_OPCODE_CLK_BACKUP;
 631:.\Generated_Source\PSoC4/CyFlash.c ****             CY_NOP;
 632:.\Generated_Source\PSoC4/CyFlash.c ****             retValue = CY_FLASH_API_RETURN;
 633:.\Generated_Source\PSoC4/CyFlash.c ****         #endif /* (CY_IP_SPCIF_SYNCHRONOUS) */
 634:.\Generated_Source\PSoC4/CyFlash.c **** 
 635:.\Generated_Source\PSoC4/CyFlash.c ****     #endif  /* (CY_PSOC4_4000) */
 636:.\Generated_Source\PSoC4/CyFlash.c **** 
 637:.\Generated_Source\PSoC4/CyFlash.c **** #endif  /* (CY_IP_FM) */
 638:.\Generated_Source\PSoC4/CyFlash.c **** 
 639:.\Generated_Source\PSoC4/CyFlash.c ****     return (retValue);
 640:.\Generated_Source\PSoC4/CyFlash.c **** }
ARM GAS  C:\Users\SPITFI~1\AppData\Local\Temp\cc9g4rtH.s 			page 13


  45              		.loc 1 640 0
  46 001c 0020     		mov	r0, #0
  47              		@ sp needed
  48 001e 7047     		bx	lr
  49              	.L3:
  50              		.align	2
  51              	.L2:
  52 0020 28000340 		.word	1073938472
  53 0024 00000000 		.word	.LANCHOR0
  54 0028 30000340 		.word	1073938480
  55 002c 080F0340 		.word	1073942280
  56              		.cfi_endproc
  57              	.LFE2:
  58              		.size	CySysFlashClockBackup, .-CySysFlashClockBackup
  59              		.section	.text.CySysFlashClockConfig,"ax",%progbits
  60              		.align	2
  61              		.code	16
  62              		.thumb_func
  63              		.type	CySysFlashClockConfig, %function
  64              	CySysFlashClockConfig:
  65              	.LFB3:
 641:.\Generated_Source\PSoC4/CyFlash.c **** 
 642:.\Generated_Source\PSoC4/CyFlash.c **** 
 643:.\Generated_Source\PSoC4/CyFlash.c **** #if(CY_IP_SPCIF_SYNCHRONOUS)
 644:.\Generated_Source\PSoC4/CyFlash.c **** /*******************************************************************************
 645:.\Generated_Source\PSoC4/CyFlash.c **** * Function Name: CySysFlashClockConfig
 646:.\Generated_Source\PSoC4/CyFlash.c **** ****************************************************************************//**
 647:.\Generated_Source\PSoC4/CyFlash.c **** *
 648:.\Generated_Source\PSoC4/CyFlash.c **** * Configures the device clocks for the flash writing.
 649:.\Generated_Source\PSoC4/CyFlash.c **** *
 650:.\Generated_Source\PSoC4/CyFlash.c **** * \return The same as \ref CySysFlashWriteRow().
 651:.\Generated_Source\PSoC4/CyFlash.c **** *
 652:.\Generated_Source\PSoC4/CyFlash.c **** *******************************************************************************/
 653:.\Generated_Source\PSoC4/CyFlash.c **** static cystatus CySysFlashClockConfig(void)
 654:.\Generated_Source\PSoC4/CyFlash.c **** {
  66              		.loc 1 654 0
  67              		.cfi_startproc
  68 0000 08B5     		push	{r3, lr}
  69              		.cfi_def_cfa_offset 8
  70              		.cfi_offset 3, -8
  71              		.cfi_offset 14, -4
  72              	.LVL1:
 655:.\Generated_Source\PSoC4/CyFlash.c ****     cystatus retValue = CY_SYS_FLASH_SUCCESS;
 656:.\Generated_Source\PSoC4/CyFlash.c **** 
 657:.\Generated_Source\PSoC4/CyFlash.c ****     /***************************************************************************
 658:.\Generated_Source\PSoC4/CyFlash.c ****     * The FM-Lite IP uses the IMO at 48MHz for the pump clock and SPC timer
 659:.\Generated_Source\PSoC4/CyFlash.c ****     * clock. The PUMP_SEL and HF clock must be set to IMO before calling Flash
 660:.\Generated_Source\PSoC4/CyFlash.c ****     * write or erase operation.
 661:.\Generated_Source\PSoC4/CyFlash.c ****     ***************************************************************************/
 662:.\Generated_Source\PSoC4/CyFlash.c **** #if (CY_PSOC4_4000)
 663:.\Generated_Source\PSoC4/CyFlash.c **** 
 664:.\Generated_Source\PSoC4/CyFlash.c ****     /***************************************************************************
 665:.\Generated_Source\PSoC4/CyFlash.c ****     * Perform firmware clock settings setup for the PSOC4 4000 devices (the
 666:.\Generated_Source\PSoC4/CyFlash.c ****     * corresponding system call is not reliable):
 667:.\Generated_Source\PSoC4/CyFlash.c ****     * - The IMO frequency should be 48 MHz
 668:.\Generated_Source\PSoC4/CyFlash.c ****     * - The IMO should be source for the HFCLK
 669:.\Generated_Source\PSoC4/CyFlash.c ****     * - The IMO should be the source for the charge pump clock
ARM GAS  C:\Users\SPITFI~1\AppData\Local\Temp\cc9g4rtH.s 			page 14


 670:.\Generated_Source\PSoC4/CyFlash.c ****     *
 671:.\Generated_Source\PSoC4/CyFlash.c ****     * Note The structure members used below are initialized by
 672:.\Generated_Source\PSoC4/CyFlash.c ****     * the CySysFlashClockBackup() function.
 673:.\Generated_Source\PSoC4/CyFlash.c ****     ***************************************************************************/
 674:.\Generated_Source\PSoC4/CyFlash.c ****     if ((cySysFlashBackup.clkImoFreq != 48u) ||
  73              		.loc 1 674 0
  74 0002 124B     		ldr	r3, .L8
  75 0004 9B68     		ldr	r3, [r3, #8]
  76 0006 302B     		cmp	r3, #48
  77 0008 07D1     		bne	.L5
 675:.\Generated_Source\PSoC4/CyFlash.c ****         ((cySysFlashBackup.clkSelectReg & CY_SYS_CLK_SELECT_DIRECT_SEL_MASK) != CY_SYS_CLK_HFCLK_IM
  78              		.loc 1 675 0 discriminator 1
  79 000a 104B     		ldr	r3, .L8
  80 000c 1B68     		ldr	r3, [r3]
 674:.\Generated_Source\PSoC4/CyFlash.c ****         ((cySysFlashBackup.clkSelectReg & CY_SYS_CLK_SELECT_DIRECT_SEL_MASK) != CY_SYS_CLK_HFCLK_IM
  81              		.loc 1 674 0 discriminator 1
  82 000e 9A07     		lsl	r2, r3, #30
  83 0010 03D1     		bne	.L5
 676:.\Generated_Source\PSoC4/CyFlash.c ****         (((cySysFlashBackup.clkSelectReg >> CY_SYS_CLK_SELECT_PUMP_SEL_SHIFT) & CY_SYS_CLK_SELECT_P
  84              		.loc 1 676 0
  85 0012 9B06     		lsl	r3, r3, #26
  86 0014 9B0F     		lsr	r3, r3, #30
 675:.\Generated_Source\PSoC4/CyFlash.c ****         ((cySysFlashBackup.clkSelectReg & CY_SYS_CLK_SELECT_DIRECT_SEL_MASK) != CY_SYS_CLK_HFCLK_IM
  87              		.loc 1 675 0
  88 0016 012B     		cmp	r3, #1
  89 0018 15D0     		beq	.L6
  90              	.L5:
 677:.\Generated_Source\PSoC4/CyFlash.c ****             CY_SYS_CLK_SELECT_PUMP_SEL_IMO))
 678:.\Generated_Source\PSoC4/CyFlash.c ****     {
 679:.\Generated_Source\PSoC4/CyFlash.c ****         /***********************************************************************
 680:.\Generated_Source\PSoC4/CyFlash.c ****          Set HFCLK divider to divide-by-4 to ensure that System clock frequency
 681:.\Generated_Source\PSoC4/CyFlash.c ****         * is within the valid limit (16 MHz for the PSoC4 4000).
 682:.\Generated_Source\PSoC4/CyFlash.c ****         ***********************************************************************/
 683:.\Generated_Source\PSoC4/CyFlash.c ****         CySysClkWriteHfclkDiv(CY_SYS_CLK_HFCLK_DIV_4);
  91              		.loc 1 683 0
  92 001a 0220     		mov	r0, #2
  93 001c FFF7FEFF 		bl	CySysClkWriteHfclkDiv
  94              	.LVL2:
 684:.\Generated_Source\PSoC4/CyFlash.c **** 
 685:.\Generated_Source\PSoC4/CyFlash.c ****         /* The IMO frequency should be 48 MHz */
 686:.\Generated_Source\PSoC4/CyFlash.c ****         if (cySysFlashBackup.clkImoFreq != 48u)
  95              		.loc 1 686 0
  96 0020 0A4B     		ldr	r3, .L8
  97 0022 9B68     		ldr	r3, [r3, #8]
  98 0024 302B     		cmp	r3, #48
  99 0026 02D0     		beq	.L7
 687:.\Generated_Source\PSoC4/CyFlash.c ****         {
 688:.\Generated_Source\PSoC4/CyFlash.c ****             CySysClkWriteImoFreq(48u);
 100              		.loc 1 688 0
 101 0028 3020     		mov	r0, #48
 102 002a FFF7FEFF 		bl	CySysClkWriteImoFreq
 103              	.LVL3:
 104              	.L7:
 689:.\Generated_Source\PSoC4/CyFlash.c ****         }
 690:.\Generated_Source\PSoC4/CyFlash.c ****         CySysClkImoStart();
 105              		.loc 1 690 0
 106 002e FFF7FEFF 		bl	CySysClkImoStart
ARM GAS  C:\Users\SPITFI~1\AppData\Local\Temp\cc9g4rtH.s 			page 15


 107              	.LVL4:
 691:.\Generated_Source\PSoC4/CyFlash.c **** 
 692:.\Generated_Source\PSoC4/CyFlash.c ****         /* The IMO should be source for the HFCLK */
 693:.\Generated_Source\PSoC4/CyFlash.c ****         CySysClkWriteHfclkDirect(CY_SYS_CLK_HFCLK_IMO);
 108              		.loc 1 693 0
 109 0032 0020     		mov	r0, #0
 110 0034 FFF7FEFF 		bl	CySysClkWriteHfclkDirect
 111              	.LVL5:
 694:.\Generated_Source\PSoC4/CyFlash.c **** 
 695:.\Generated_Source\PSoC4/CyFlash.c ****         /* The IMO should be the source for the charge pump clock */
 696:.\Generated_Source\PSoC4/CyFlash.c ****         CY_SYS_CLK_SELECT_REG =  (CY_SYS_CLK_SELECT_REG &
 112              		.loc 1 696 0
 113 0038 0549     		ldr	r1, .L8+4
 114 003a 0B68     		ldr	r3, [r1]
 115 003c 3022     		mov	r2, #48
 116 003e 9343     		bic	r3, r2
 697:.\Generated_Source\PSoC4/CyFlash.c ****             ((uint32)~(uint32)(CY_SYS_CLK_SELECT_PUMP_SEL_MASK << CY_SYS_CLK_SELECT_PUMP_SEL_SHIFT)
 117              		.loc 1 697 0
 118 0040 203A     		sub	r2, r2, #32
 119 0042 1343     		orr	r3, r2
 696:.\Generated_Source\PSoC4/CyFlash.c ****             ((uint32)~(uint32)(CY_SYS_CLK_SELECT_PUMP_SEL_MASK << CY_SYS_CLK_SELECT_PUMP_SEL_SHIFT)
 120              		.loc 1 696 0
 121 0044 0B60     		str	r3, [r1]
 122              	.L6:
 698:.\Generated_Source\PSoC4/CyFlash.c ****             ((uint32)((uint32)1u << CY_SYS_CLK_SELECT_PUMP_SEL_SHIFT));
 699:.\Generated_Source\PSoC4/CyFlash.c ****     }
 700:.\Generated_Source\PSoC4/CyFlash.c **** 
 701:.\Generated_Source\PSoC4/CyFlash.c **** #else
 702:.\Generated_Source\PSoC4/CyFlash.c **** 
 703:.\Generated_Source\PSoC4/CyFlash.c ****     /* FM-Lite Clock Configuration */
 704:.\Generated_Source\PSoC4/CyFlash.c ****     CY_FLASH_CPUSS_SYSARG_REG =
 705:.\Generated_Source\PSoC4/CyFlash.c ****         (uint32) ((CY_FLASH_KEY_TWO(CY_FLASH_API_OPCODE_CLK_CONFIG) <<  CY_FLASH_PARAM_KEY_TWO_OFFS
 706:.\Generated_Source\PSoC4/CyFlash.c ****                     CY_FLASH_KEY_ONE);
 707:.\Generated_Source\PSoC4/CyFlash.c ****     CY_FLASH_CPUSS_SYSREQ_REG = CY_FLASH_CPUSS_REQ_START | CY_FLASH_API_OPCODE_CLK_CONFIG;
 708:.\Generated_Source\PSoC4/CyFlash.c ****     CY_NOP;
 709:.\Generated_Source\PSoC4/CyFlash.c ****     retValue = CY_FLASH_API_RETURN;
 710:.\Generated_Source\PSoC4/CyFlash.c **** 
 711:.\Generated_Source\PSoC4/CyFlash.c **** #endif  /* (CY_PSOC4_4000) */
 712:.\Generated_Source\PSoC4/CyFlash.c **** 
 713:.\Generated_Source\PSoC4/CyFlash.c ****     return (retValue);
 714:.\Generated_Source\PSoC4/CyFlash.c **** }
 123              		.loc 1 714 0
 124 0046 0020     		mov	r0, #0
 125              		@ sp needed
 126 0048 08BD     		pop	{r3, pc}
 127              	.L9:
 128 004a C046     		.align	2
 129              	.L8:
 130 004c 00000000 		.word	.LANCHOR0
 131 0050 28000340 		.word	1073938472
 132              		.cfi_endproc
 133              	.LFE3:
 134              		.size	CySysFlashClockConfig, .-CySysFlashClockConfig
 135              		.section	.text.CySysFlashClockRestore,"ax",%progbits
 136              		.align	2
 137              		.code	16
 138              		.thumb_func
ARM GAS  C:\Users\SPITFI~1\AppData\Local\Temp\cc9g4rtH.s 			page 16


 139              		.type	CySysFlashClockRestore, %function
 140              	CySysFlashClockRestore:
 141              	.LFB4:
 715:.\Generated_Source\PSoC4/CyFlash.c **** #endif  /* (CY_IP_SPCIF_SYNCHRONOUS) */
 716:.\Generated_Source\PSoC4/CyFlash.c **** 
 717:.\Generated_Source\PSoC4/CyFlash.c **** 
 718:.\Generated_Source\PSoC4/CyFlash.c **** /*******************************************************************************
 719:.\Generated_Source\PSoC4/CyFlash.c **** * Function Name: CySysFlashClockRestore
 720:.\Generated_Source\PSoC4/CyFlash.c **** ****************************************************************************//**
 721:.\Generated_Source\PSoC4/CyFlash.c **** *
 722:.\Generated_Source\PSoC4/CyFlash.c **** * Restores the device clock configuration.
 723:.\Generated_Source\PSoC4/CyFlash.c **** *
 724:.\Generated_Source\PSoC4/CyFlash.c **** * \return The same as \ref CySysFlashWriteRow().
 725:.\Generated_Source\PSoC4/CyFlash.c **** *
 726:.\Generated_Source\PSoC4/CyFlash.c **** *******************************************************************************/
 727:.\Generated_Source\PSoC4/CyFlash.c **** static cystatus CySysFlashClockRestore(void)
 728:.\Generated_Source\PSoC4/CyFlash.c **** {
 142              		.loc 1 728 0
 143              		.cfi_startproc
 144 0000 10B5     		push	{r4, lr}
 145              		.cfi_def_cfa_offset 8
 146              		.cfi_offset 4, -8
 147              		.cfi_offset 14, -4
 148              	.LVL6:
 729:.\Generated_Source\PSoC4/CyFlash.c ****     cystatus retValue = CY_SYS_FLASH_SUCCESS;
 730:.\Generated_Source\PSoC4/CyFlash.c **** #if(!CY_IP_FM)
 731:.\Generated_Source\PSoC4/CyFlash.c ****     #if !(CY_PSOC4_4000)
 732:.\Generated_Source\PSoC4/CyFlash.c ****         #if (CY_IP_SPCIF_SYNCHRONOUS)
 733:.\Generated_Source\PSoC4/CyFlash.c ****             volatile uint32   parameters[2u];
 734:.\Generated_Source\PSoC4/CyFlash.c ****         #endif /* (CY_IP_SPCIF_SYNCHRONOUS) */
 735:.\Generated_Source\PSoC4/CyFlash.c ****     #endif  /* !(CY_PSOC4_4000) */
 736:.\Generated_Source\PSoC4/CyFlash.c **** #endif  /* (!CY_IP_FM) */
 737:.\Generated_Source\PSoC4/CyFlash.c **** 
 738:.\Generated_Source\PSoC4/CyFlash.c **** #if(CY_IP_FM)
 739:.\Generated_Source\PSoC4/CyFlash.c **** 
 740:.\Generated_Source\PSoC4/CyFlash.c ****     /***************************************************************
 741:.\Generated_Source\PSoC4/CyFlash.c ****     * Restore IMO configuration that could be changed during
 742:.\Generated_Source\PSoC4/CyFlash.c ****     * system call execution (Cypress ID #150448).
 743:.\Generated_Source\PSoC4/CyFlash.c ****     ***************************************************************/
 744:.\Generated_Source\PSoC4/CyFlash.c ****     CY_SYS_CLK_IMO_CONFIG_REG = cySysFlashBackup.imoConfigReg;
 745:.\Generated_Source\PSoC4/CyFlash.c **** 
 746:.\Generated_Source\PSoC4/CyFlash.c **** #else
 747:.\Generated_Source\PSoC4/CyFlash.c **** 
 748:.\Generated_Source\PSoC4/CyFlash.c ****     #if (CY_PSOC4_4000)
 749:.\Generated_Source\PSoC4/CyFlash.c **** 
 750:.\Generated_Source\PSoC4/CyFlash.c ****         /***************************************************************************
 751:.\Generated_Source\PSoC4/CyFlash.c ****         * Perform firmware clock settings restore for the PSOC4 4000 devices (the
 752:.\Generated_Source\PSoC4/CyFlash.c ****         * corresponding system call is not available).
 753:.\Generated_Source\PSoC4/CyFlash.c ****         ***************************************************************************/
 754:.\Generated_Source\PSoC4/CyFlash.c **** 
 755:.\Generated_Source\PSoC4/CyFlash.c ****         /* Restore clock settings */
 756:.\Generated_Source\PSoC4/CyFlash.c ****         if ((cySysFlashBackup.clkImoFreq != 48u) ||
 149              		.loc 1 756 0
 150 0002 0F4B     		ldr	r3, .L14
 151 0004 9868     		ldr	r0, [r3, #8]
 152 0006 3028     		cmp	r0, #48
 153 0008 06D1     		bne	.L11
ARM GAS  C:\Users\SPITFI~1\AppData\Local\Temp\cc9g4rtH.s 			page 17


 757:.\Generated_Source\PSoC4/CyFlash.c ****             ((cySysFlashBackup.clkSelectReg & CY_SYS_CLK_SELECT_DIRECT_SEL_MASK) != CY_SYS_CLK_HFCL
 154              		.loc 1 757 0 discriminator 1
 155 000a 1B68     		ldr	r3, [r3]
 756:.\Generated_Source\PSoC4/CyFlash.c ****             ((cySysFlashBackup.clkSelectReg & CY_SYS_CLK_SELECT_DIRECT_SEL_MASK) != CY_SYS_CLK_HFCL
 156              		.loc 1 756 0 discriminator 1
 157 000c 9A07     		lsl	r2, r3, #30
 158 000e 03D1     		bne	.L11
 758:.\Generated_Source\PSoC4/CyFlash.c ****             (((cySysFlashBackup.clkSelectReg >> CY_SYS_CLK_SELECT_PUMP_SEL_SHIFT) & CY_SYS_CLK_SELE
 159              		.loc 1 758 0
 160 0010 9B06     		lsl	r3, r3, #26
 161 0012 9B0F     		lsr	r3, r3, #30
 757:.\Generated_Source\PSoC4/CyFlash.c ****             ((cySysFlashBackup.clkSelectReg & CY_SYS_CLK_SELECT_DIRECT_SEL_MASK) != CY_SYS_CLK_HFCL
 162              		.loc 1 757 0
 163 0014 012B     		cmp	r3, #1
 164 0016 11D0     		beq	.L12
 165              	.L11:
 759:.\Generated_Source\PSoC4/CyFlash.c ****                 CY_SYS_CLK_SELECT_PUMP_SEL_IMO))
 760:.\Generated_Source\PSoC4/CyFlash.c ****         {
 761:.\Generated_Source\PSoC4/CyFlash.c ****             /* Restore IMO frequency if needed */
 762:.\Generated_Source\PSoC4/CyFlash.c ****             if (cySysFlashBackup.clkImoFreq != 48u)
 166              		.loc 1 762 0
 167 0018 3028     		cmp	r0, #48
 168 001a 01D0     		beq	.L13
 763:.\Generated_Source\PSoC4/CyFlash.c ****             {
 764:.\Generated_Source\PSoC4/CyFlash.c ****                 CySysClkWriteImoFreq(cySysFlashBackup.clkImoFreq);
 169              		.loc 1 764 0
 170 001c FFF7FEFF 		bl	CySysClkWriteImoFreq
 171              	.LVL7:
 172              	.L13:
 765:.\Generated_Source\PSoC4/CyFlash.c ****             }
 766:.\Generated_Source\PSoC4/CyFlash.c **** 
 767:.\Generated_Source\PSoC4/CyFlash.c ****             /* Restore HFCLK clock source */
 768:.\Generated_Source\PSoC4/CyFlash.c ****             CySysClkWriteHfclkDirect(cySysFlashBackup.clkSelectReg & CY_SYS_CLK_SELECT_DIRECT_SEL_M
 173              		.loc 1 768 0
 174 0020 074C     		ldr	r4, .L14
 175 0022 0320     		mov	r0, #3
 176 0024 2368     		ldr	r3, [r4]
 177 0026 1840     		and	r0, r3
 178 0028 FFF7FEFF 		bl	CySysClkWriteHfclkDirect
 179              	.LVL8:
 769:.\Generated_Source\PSoC4/CyFlash.c **** 
 770:.\Generated_Source\PSoC4/CyFlash.c ****             /* Restore HFCLK divider and source for pump  */
 771:.\Generated_Source\PSoC4/CyFlash.c ****             CY_SYS_CLK_SELECT_REG = cySysFlashBackup.clkSelectReg;
 180              		.loc 1 771 0
 181 002c 054B     		ldr	r3, .L14+4
 182 002e 2268     		ldr	r2, [r4]
 183 0030 1A60     		str	r2, [r3]
 772:.\Generated_Source\PSoC4/CyFlash.c **** 
 773:.\Generated_Source\PSoC4/CyFlash.c ****             /* Stop IMO if needed */
 774:.\Generated_Source\PSoC4/CyFlash.c ****             if (0u == cySysFlashBackup.clkImoEna)
 184              		.loc 1 774 0
 185 0032 6368     		ldr	r3, [r4, #4]
 186 0034 002B     		cmp	r3, #0
 187 0036 01D1     		bne	.L12
 775:.\Generated_Source\PSoC4/CyFlash.c ****             {
 776:.\Generated_Source\PSoC4/CyFlash.c ****                 CySysClkImoStop();
 188              		.loc 1 776 0
ARM GAS  C:\Users\SPITFI~1\AppData\Local\Temp\cc9g4rtH.s 			page 18


 189 0038 FFF7FEFF 		bl	CySysClkImoStop
 190              	.LVL9:
 191              	.L12:
 777:.\Generated_Source\PSoC4/CyFlash.c ****             }
 778:.\Generated_Source\PSoC4/CyFlash.c ****         }
 779:.\Generated_Source\PSoC4/CyFlash.c **** 
 780:.\Generated_Source\PSoC4/CyFlash.c ****     #else
 781:.\Generated_Source\PSoC4/CyFlash.c **** 
 782:.\Generated_Source\PSoC4/CyFlash.c ****         #if (CY_IP_SPCIF_SYNCHRONOUS)
 783:.\Generated_Source\PSoC4/CyFlash.c ****             /* FM-Lite Clock Restore */
 784:.\Generated_Source\PSoC4/CyFlash.c ****             parameters[0u] =
 785:.\Generated_Source\PSoC4/CyFlash.c ****                 (uint32) ((CY_FLASH_KEY_TWO(CY_FLASH_API_OPCODE_CLK_RESTORE) <<  CY_FLASH_PARAM_KEY
 786:.\Generated_Source\PSoC4/CyFlash.c ****                             CY_FLASH_KEY_ONE);
 787:.\Generated_Source\PSoC4/CyFlash.c ****             parameters[1u] = (uint32) &cySysFlashBackup.clockSettings[0u];
 788:.\Generated_Source\PSoC4/CyFlash.c ****             CY_FLASH_CPUSS_SYSARG_REG = (uint32) &parameters[0u];
 789:.\Generated_Source\PSoC4/CyFlash.c ****             CY_FLASH_CPUSS_SYSREQ_REG = CY_FLASH_CPUSS_REQ_START | CY_FLASH_API_OPCODE_CLK_RESTORE;
 790:.\Generated_Source\PSoC4/CyFlash.c ****             CY_NOP;
 791:.\Generated_Source\PSoC4/CyFlash.c ****             retValue = CY_FLASH_API_RETURN;
 792:.\Generated_Source\PSoC4/CyFlash.c ****         #endif /* (CY_IP_SPCIF_SYNCHRONOUS) */
 793:.\Generated_Source\PSoC4/CyFlash.c **** 
 794:.\Generated_Source\PSoC4/CyFlash.c ****     #endif  /* (CY_PSOC4_4000) */
 795:.\Generated_Source\PSoC4/CyFlash.c **** 
 796:.\Generated_Source\PSoC4/CyFlash.c **** #endif  /* (CY_IP_FM) */
 797:.\Generated_Source\PSoC4/CyFlash.c **** 
 798:.\Generated_Source\PSoC4/CyFlash.c ****     return (retValue);
 799:.\Generated_Source\PSoC4/CyFlash.c **** }
 192              		.loc 1 799 0
 193 003c 0020     		mov	r0, #0
 194              		@ sp needed
 195 003e 10BD     		pop	{r4, pc}
 196              	.L15:
 197              		.align	2
 198              	.L14:
 199 0040 00000000 		.word	.LANCHOR0
 200 0044 28000340 		.word	1073938472
 201              		.cfi_endproc
 202              	.LFE4:
 203              		.size	CySysFlashClockRestore, .-CySysFlashClockRestore
 204              		.section	.text.CySysFlashWriteRow,"ax",%progbits
 205              		.align	2
 206              		.global	CySysFlashWriteRow
 207              		.code	16
 208              		.thumb_func
 209              		.type	CySysFlashWriteRow, %function
 210              	CySysFlashWriteRow:
 211              	.LFB0:
  81:.\Generated_Source\PSoC4/CyFlash.c ****     volatile uint32 retValue = CY_SYS_FLASH_SUCCESS;
 212              		.loc 1 81 0
 213              		.cfi_startproc
 214              	.LVL10:
 215 0000 F0B5     		push	{r4, r5, r6, r7, lr}
 216              		.cfi_def_cfa_offset 20
 217              		.cfi_offset 4, -20
 218              		.cfi_offset 5, -16
 219              		.cfi_offset 6, -12
 220              		.cfi_offset 7, -8
 221              		.cfi_offset 14, -4
ARM GAS  C:\Users\SPITFI~1\AppData\Local\Temp\cc9g4rtH.s 			page 19


 222 0002 97B0     		sub	sp, sp, #92
 223              		.cfi_def_cfa_offset 112
  82:.\Generated_Source\PSoC4/CyFlash.c ****     volatile uint32 clkCnfRetValue = CY_SYS_FLASH_SUCCESS;
 224              		.loc 1 82 0
 225 0004 0023     		mov	r3, #0
 226 0006 1593     		str	r3, [sp, #84]
  83:.\Generated_Source\PSoC4/CyFlash.c ****     volatile uint32 parameters[(CY_FLASH_SIZEOF_ROW + CY_FLASH_SRAM_ROM_DATA) / sizeof(uint32)];
 227              		.loc 1 83 0
 228 0008 1493     		str	r3, [sp, #80]
 229              	.LVL11:
  96:.\Generated_Source\PSoC4/CyFlash.c ****     {
 230              		.loc 1 96 0
 231 000a FF28     		cmp	r0, #255
 232 000c 00D9     		bls	.LCB188
 233 000e D3E0     		b	.L17	@long jump
 234              	.LCB188:
  96:.\Generated_Source\PSoC4/CyFlash.c ****     {
 235              		.loc 1 96 0 is_stmt 0 discriminator 1
 236 0010 0029     		cmp	r1, #0
 237 0012 00D1     		bne	.LCB190
 238 0014 D0E0     		b	.L17	@long jump
 239              	.LCB190:
 240 0016 051C     		mov	r5, r0
  99:.\Generated_Source\PSoC4/CyFlash.c **** 
 241              		.loc 1 99 0 is_stmt 1
 242 0018 04A8     		add	r0, sp, #16
 243              	.LVL12:
 244 001a 4022     		mov	r2, #64
 245 001c FFF7FEFF 		bl	memcpy
 246              	.LVL13:
 103:.\Generated_Source\PSoC4/CyFlash.c ****             {
 247              		.loc 1 103 0
 248 0020 0223     		mov	r3, #2
  92:.\Generated_Source\PSoC4/CyFlash.c ****         uint32 i;
 249              		.loc 1 92 0
 250 0022 0020     		mov	r0, #0
  91:.\Generated_Source\PSoC4/CyFlash.c ****         uint32 bits = 0u;
 251              		.loc 1 91 0
 252 0024 0021     		mov	r1, #0
  89:.\Generated_Source\PSoC4/CyFlash.c ****         uint32 savedValue = 0u;
 253              		.loc 1 89 0
 254 0026 0024     		mov	r4, #0
 103:.\Generated_Source\PSoC4/CyFlash.c ****             {
 255              		.loc 1 103 0
 256 0028 08E0     		b	.L18
 257              	.LVL14:
 258              	.L20:
 259              	.LBB2:
 105:.\Generated_Source\PSoC4/CyFlash.c ****                 if (tmp != 0u)
 260              		.loc 1 105 0
 261 002a 9A00     		lsl	r2, r3, #2
 262 002c 02AE     		add	r6, sp, #8
 263 002e 9259     		ldr	r2, [r2, r6]
 264              	.LVL15:
 106:.\Generated_Source\PSoC4/CyFlash.c ****                 {
 265              		.loc 1 106 0
 266 0030 002A     		cmp	r2, #0
ARM GAS  C:\Users\SPITFI~1\AppData\Local\Temp\cc9g4rtH.s 			page 20


 267 0032 02D0     		beq	.L19
 108:.\Generated_Source\PSoC4/CyFlash.c ****                     bits |= tmp;
 268              		.loc 1 108 0
 269 0034 8918     		add	r1, r1, r2
 270              	.LVL16:
 109:.\Generated_Source\PSoC4/CyFlash.c ****                     savedIndex = i;
 271              		.loc 1 109 0
 272 0036 1043     		orr	r0, r2
 273              	.LVL17:
 110:.\Generated_Source\PSoC4/CyFlash.c ****                 }
 274              		.loc 1 110 0
 275 0038 1C1C     		mov	r4, r3
 276              	.LVL18:
 277              	.L19:
 278              	.LBE2:
 103:.\Generated_Source\PSoC4/CyFlash.c ****             {
 279              		.loc 1 103 0 discriminator 2
 280 003a 0133     		add	r3, r3, #1
 281              	.LVL19:
 282              	.L18:
 103:.\Generated_Source\PSoC4/CyFlash.c ****             {
 283              		.loc 1 103 0 is_stmt 0 discriminator 1
 284 003c 112B     		cmp	r3, #17
 285 003e F4D9     		bls	.L20
 114:.\Generated_Source\PSoC4/CyFlash.c ****             if (needChecksumWorkaround != 0u)
 286              		.loc 1 114 0 is_stmt 1
 287 0040 0029     		cmp	r1, #0
 288 0042 03D1     		bne	.L40
 114:.\Generated_Source\PSoC4/CyFlash.c ****             if (needChecksumWorkaround != 0u)
 289              		.loc 1 114 0 is_stmt 0 discriminator 1
 290 0044 0028     		cmp	r0, #0
 291 0046 03D1     		bne	.L41
 114:.\Generated_Source\PSoC4/CyFlash.c ****             if (needChecksumWorkaround != 0u)
 292              		.loc 1 114 0
 293 0048 0026     		mov	r6, #0
 294 004a 02E0     		b	.L21
 295              	.L40:
 296 004c 0026     		mov	r6, #0
 297 004e 00E0     		b	.L21
 298              	.L41:
 299 0050 0126     		mov	r6, #1
 300              	.L21:
 301              	.LVL20:
 115:.\Generated_Source\PSoC4/CyFlash.c ****             {
 302              		.loc 1 115 0 is_stmt 1 discriminator 6
 303 0052 002E     		cmp	r6, #0
 304 0054 06D0     		beq	.L42
 117:.\Generated_Source\PSoC4/CyFlash.c ****                 parameters[savedIndex] = 0u;
 305              		.loc 1 117 0
 306 0056 A300     		lsl	r3, r4, #2
 307              	.LVL21:
 308 0058 02AA     		add	r2, sp, #8
 309 005a 9F58     		ldr	r7, [r3, r2]
 310              	.LVL22:
 118:.\Generated_Source\PSoC4/CyFlash.c ****             }
 311              		.loc 1 118 0
 312 005c 0022     		mov	r2, #0
ARM GAS  C:\Users\SPITFI~1\AppData\Local\Temp\cc9g4rtH.s 			page 21


 313 005e 02A9     		add	r1, sp, #8
 314              	.LVL23:
 315 0060 5A50     		str	r2, [r3, r1]
 316 0062 00E0     		b	.L22
 317              	.LVL24:
 318              	.L42:
  90:.\Generated_Source\PSoC4/CyFlash.c ****         uint32 checksum = 0u;
 319              		.loc 1 90 0
 320 0064 0027     		mov	r7, #0
 321              	.LVL25:
 322              	.L22:
 123:.\Generated_Source\PSoC4/CyFlash.c ****                          (uint32) (CY_FLASH_PAGE_LATCH_START_ADDR             << CY_FLASH_PARAM_ADD
 323              		.loc 1 123 0
 324 0066 574B     		ldr	r3, .L47
 325 0068 0293     		str	r3, [sp, #8]
 127:.\Generated_Source\PSoC4/CyFlash.c **** 
 326              		.loc 1 127 0
 327 006a 3F23     		mov	r3, #63
 328 006c 0393     		str	r3, [sp, #12]
 129:.\Generated_Source\PSoC4/CyFlash.c ****         CY_FLASH_CPUSS_SYSREQ_REG = CY_FLASH_CPUSS_REQ_START | CY_FLASH_API_OPCODE_LOAD;
 329              		.loc 1 129 0
 330 006e 564B     		ldr	r3, .L47+4
 331 0070 02AA     		add	r2, sp, #8
 332 0072 1A60     		str	r2, [r3]
 130:.\Generated_Source\PSoC4/CyFlash.c ****         CY_NOP;
 333              		.loc 1 130 0
 334 0074 5549     		ldr	r1, .L47+8
 335 0076 564A     		ldr	r2, .L47+12
 336 0078 1160     		str	r1, [r2]
 131:.\Generated_Source\PSoC4/CyFlash.c ****         retValue = CY_FLASH_API_RETURN;
 337              		.loc 1 131 0
 338              	@ 131 ".\Generated_Source\PSoC4\CyFlash.c" 1
 339 007a C046     		NOP
 340              	
 341              	@ 0 "" 2
 132:.\Generated_Source\PSoC4/CyFlash.c **** 
 342              		.loc 1 132 0
 343              		.code	16
 344 007c 1B68     		ldr	r3, [r3]
 345 007e 1B0F     		lsr	r3, r3, #28
 346 0080 0F2B     		cmp	r3, #15
 347 0082 04D1     		bne	.L23
 132:.\Generated_Source\PSoC4/CyFlash.c **** 
 348              		.loc 1 132 0 is_stmt 0 discriminator 1
 349 0084 504B     		ldr	r3, .L47+4
 350 0086 1B68     		ldr	r3, [r3]
 351 0088 FF22     		mov	r2, #255
 352 008a 1340     		and	r3, r2
 353 008c 08E0     		b	.L24
 354              	.L23:
 132:.\Generated_Source\PSoC4/CyFlash.c **** 
 355              		.loc 1 132 0 discriminator 2
 356 008e 4E4B     		ldr	r3, .L47+4
 357 0090 1B68     		ldr	r3, [r3]
 358 0092 1B0F     		lsr	r3, r3, #28
 359 0094 0A2B     		cmp	r3, #10
 360 0096 02D0     		beq	.L43
ARM GAS  C:\Users\SPITFI~1\AppData\Local\Temp\cc9g4rtH.s 			page 22


 132:.\Generated_Source\PSoC4/CyFlash.c **** 
 361              		.loc 1 132 0 discriminator 4
 362 0098 4B4B     		ldr	r3, .L47+4
 363 009a 1B68     		ldr	r3, [r3]
 364 009c 00E0     		b	.L24
 365              	.L43:
 132:.\Generated_Source\PSoC4/CyFlash.c **** 
 366              		.loc 1 132 0
 367 009e 0023     		mov	r3, #0
 368              	.L24:
 132:.\Generated_Source\PSoC4/CyFlash.c **** 
 369              		.loc 1 132 0 discriminator 8
 370 00a0 1593     		str	r3, [sp, #84]
 134:.\Generated_Source\PSoC4/CyFlash.c ****         {
 371              		.loc 1 134 0 is_stmt 1 discriminator 8
 372 00a2 159B     		ldr	r3, [sp, #84]
 373 00a4 002B     		cmp	r3, #0
 374 00a6 00D0     		beq	.LCB345
 375 00a8 88E0     		b	.L26	@long jump
 376              	.LCB345:
 142:.\Generated_Source\PSoC4/CyFlash.c **** 
 377              		.loc 1 142 0
 378 00aa FFF7FEFF 		bl	CyEnterCriticalSection
 379              	.LVL26:
 380 00ae 0190     		str	r0, [sp, #4]
 381              	.LVL27:
 144:.\Generated_Source\PSoC4/CyFlash.c **** 
 382              		.loc 1 144 0
 383 00b0 FFF7FEFF 		bl	CySysFlashClockBackup
 384              	.LVL28:
 385 00b4 1490     		str	r0, [sp, #80]
 147:.\Generated_Source\PSoC4/CyFlash.c ****             {
 386              		.loc 1 147 0
 387 00b6 149B     		ldr	r3, [sp, #80]
 388 00b8 002B     		cmp	r3, #0
 389 00ba 02D1     		bne	.L27
 149:.\Generated_Source\PSoC4/CyFlash.c ****             }
 390              		.loc 1 149 0
 391 00bc FFF7FEFF 		bl	CySysFlashClockConfig
 392              	.LVL29:
 393 00c0 1590     		str	r0, [sp, #84]
 394              	.L27:
 153:.\Generated_Source\PSoC4/CyFlash.c ****             {
 395              		.loc 1 153 0
 396 00c2 159B     		ldr	r3, [sp, #84]
 397 00c4 002B     		cmp	r3, #0
 398 00c6 1FD1     		bne	.L28
 156:.\Generated_Source\PSoC4/CyFlash.c ****                 parameters[0u] |= (uint32)(rowNum << 16u);
 399              		.loc 1 156 0
 400 00c8 424B     		ldr	r3, .L47+16
 401 00ca 0293     		str	r3, [sp, #8]
 157:.\Generated_Source\PSoC4/CyFlash.c **** 
 402              		.loc 1 157 0
 403 00cc 029A     		ldr	r2, [sp, #8]
 404 00ce 2B04     		lsl	r3, r5, #16
 405 00d0 1343     		orr	r3, r2
 406 00d2 0293     		str	r3, [sp, #8]
ARM GAS  C:\Users\SPITFI~1\AppData\Local\Temp\cc9g4rtH.s 			page 23


 159:.\Generated_Source\PSoC4/CyFlash.c ****                 CY_FLASH_CPUSS_SYSREQ_REG = CY_FLASH_CPUSS_REQ_START | CY_FLASH_API_OPCODE_WRITE_RO
 407              		.loc 1 159 0
 408 00d4 3C4B     		ldr	r3, .L47+4
 409 00d6 02AA     		add	r2, sp, #8
 410 00d8 1A60     		str	r2, [r3]
 411              	.LVL30:
 160:.\Generated_Source\PSoC4/CyFlash.c ****                 CY_NOP;
 412              		.loc 1 160 0
 413 00da 3F49     		ldr	r1, .L47+20
 414 00dc 3C4A     		ldr	r2, .L47+12
 415 00de 1160     		str	r1, [r2]
 161:.\Generated_Source\PSoC4/CyFlash.c ****                 retValue = CY_FLASH_API_RETURN;
 416              		.loc 1 161 0
 417              	@ 161 ".\Generated_Source\PSoC4\CyFlash.c" 1
 418 00e0 C046     		NOP
 419              	
 420              	@ 0 "" 2
 162:.\Generated_Source\PSoC4/CyFlash.c ****             }
 421              		.loc 1 162 0
 422              		.code	16
 423 00e2 1B68     		ldr	r3, [r3]
 424 00e4 1B0F     		lsr	r3, r3, #28
 425 00e6 0F2B     		cmp	r3, #15
 426 00e8 04D1     		bne	.L29
 162:.\Generated_Source\PSoC4/CyFlash.c ****             }
 427              		.loc 1 162 0 is_stmt 0 discriminator 1
 428 00ea 374B     		ldr	r3, .L47+4
 429 00ec 1B68     		ldr	r3, [r3]
 430 00ee FF22     		mov	r2, #255
 431 00f0 1340     		and	r3, r2
 432 00f2 08E0     		b	.L30
 433              	.L29:
 162:.\Generated_Source\PSoC4/CyFlash.c ****             }
 434              		.loc 1 162 0 discriminator 2
 435 00f4 344B     		ldr	r3, .L47+4
 436 00f6 1B68     		ldr	r3, [r3]
 437 00f8 1B0F     		lsr	r3, r3, #28
 438 00fa 0A2B     		cmp	r3, #10
 439 00fc 02D0     		beq	.L44
 162:.\Generated_Source\PSoC4/CyFlash.c ****             }
 440              		.loc 1 162 0 discriminator 4
 441 00fe 324B     		ldr	r3, .L47+4
 442 0100 1B68     		ldr	r3, [r3]
 443 0102 00E0     		b	.L30
 444              	.L44:
 162:.\Generated_Source\PSoC4/CyFlash.c ****             }
 445              		.loc 1 162 0
 446 0104 0023     		mov	r3, #0
 447              	.L30:
 162:.\Generated_Source\PSoC4/CyFlash.c ****             }
 448              		.loc 1 162 0 discriminator 8
 449 0106 1593     		str	r3, [sp, #84]
 450              	.L28:
 167:.\Generated_Source\PSoC4/CyFlash.c ****                 {
 451              		.loc 1 167 0 is_stmt 1
 452 0108 159B     		ldr	r3, [sp, #84]
 453 010a 002B     		cmp	r3, #0
ARM GAS  C:\Users\SPITFI~1\AppData\Local\Temp\cc9g4rtH.s 			page 24


 454 010c 4AD1     		bne	.L32
 167:.\Generated_Source\PSoC4/CyFlash.c ****                 {
 455              		.loc 1 167 0 is_stmt 0 discriminator 1
 456 010e 002E     		cmp	r6, #0
 457 0110 48D0     		beq	.L32
 169:.\Generated_Source\PSoC4/CyFlash.c ****                     parameters[savedIndex] = savedValue;
 458              		.loc 1 169 0 is_stmt 1
 459 0112 04A8     		add	r0, sp, #16
 460 0114 0021     		mov	r1, #0
 461 0116 4022     		mov	r2, #64
 462 0118 FFF7FEFF 		bl	memset
 463              	.LVL31:
 170:.\Generated_Source\PSoC4/CyFlash.c **** 
 464              		.loc 1 170 0
 465 011c A400     		lsl	r4, r4, #2
 466              	.LVL32:
 467 011e 02AB     		add	r3, sp, #8
 468 0120 E750     		str	r7, [r4, r3]
 173:.\Generated_Source\PSoC4/CyFlash.c ****                                      (uint32) (CY_FLASH_PAGE_LATCH_START_ADDR             << CY_FLA
 469              		.loc 1 173 0
 470 0122 284B     		ldr	r3, .L47
 471 0124 0293     		str	r3, [sp, #8]
 177:.\Generated_Source\PSoC4/CyFlash.c **** 
 472              		.loc 1 177 0
 473 0126 3F23     		mov	r3, #63
 474 0128 0393     		str	r3, [sp, #12]
 179:.\Generated_Source\PSoC4/CyFlash.c ****                     CY_FLASH_CPUSS_SYSREQ_REG = CY_FLASH_CPUSS_REQ_START | CY_FLASH_API_OPCODE_LOAD
 475              		.loc 1 179 0
 476 012a 274B     		ldr	r3, .L47+4
 477 012c 02AA     		add	r2, sp, #8
 478 012e 1A60     		str	r2, [r3]
 180:.\Generated_Source\PSoC4/CyFlash.c ****                     CY_NOP;
 479              		.loc 1 180 0
 480 0130 2649     		ldr	r1, .L47+8
 481 0132 274A     		ldr	r2, .L47+12
 482 0134 1160     		str	r1, [r2]
 181:.\Generated_Source\PSoC4/CyFlash.c ****                     retValue = CY_FLASH_API_RETURN;
 483              		.loc 1 181 0
 484              	@ 181 ".\Generated_Source\PSoC4\CyFlash.c" 1
 485 0136 C046     		NOP
 486              	
 487              	@ 0 "" 2
 182:.\Generated_Source\PSoC4/CyFlash.c **** 
 488              		.loc 1 182 0
 489              		.code	16
 490 0138 1B68     		ldr	r3, [r3]
 491 013a 1B0F     		lsr	r3, r3, #28
 492 013c 0F2B     		cmp	r3, #15
 493 013e 04D1     		bne	.L33
 182:.\Generated_Source\PSoC4/CyFlash.c **** 
 494              		.loc 1 182 0 is_stmt 0 discriminator 1
 495 0140 214B     		ldr	r3, .L47+4
 496 0142 1B68     		ldr	r3, [r3]
 497 0144 FF22     		mov	r2, #255
 498 0146 1340     		and	r3, r2
 499 0148 08E0     		b	.L34
 500              	.L33:
ARM GAS  C:\Users\SPITFI~1\AppData\Local\Temp\cc9g4rtH.s 			page 25


 182:.\Generated_Source\PSoC4/CyFlash.c **** 
 501              		.loc 1 182 0 discriminator 2
 502 014a 1F4B     		ldr	r3, .L47+4
 503 014c 1B68     		ldr	r3, [r3]
 504 014e 1B0F     		lsr	r3, r3, #28
 505 0150 0A2B     		cmp	r3, #10
 506 0152 02D0     		beq	.L45
 182:.\Generated_Source\PSoC4/CyFlash.c **** 
 507              		.loc 1 182 0 discriminator 4
 508 0154 1C4B     		ldr	r3, .L47+4
 509 0156 1B68     		ldr	r3, [r3]
 510 0158 00E0     		b	.L34
 511              	.L45:
 182:.\Generated_Source\PSoC4/CyFlash.c **** 
 512              		.loc 1 182 0
 513 015a 0023     		mov	r3, #0
 514              	.L34:
 182:.\Generated_Source\PSoC4/CyFlash.c **** 
 515              		.loc 1 182 0 discriminator 8
 516 015c 1593     		str	r3, [sp, #84]
 185:.\Generated_Source\PSoC4/CyFlash.c ****                     {
 517              		.loc 1 185 0 is_stmt 1 discriminator 8
 518 015e 159B     		ldr	r3, [sp, #84]
 519 0160 002B     		cmp	r3, #0
 520 0162 1FD1     		bne	.L32
 188:.\Generated_Source\PSoC4/CyFlash.c ****                             (uint32) (((uint32) CY_FLASH_KEY_TWO(CY_FLASH_API_OPCODE_PROGRAM_ROW) <
 521              		.loc 1 188 0
 522 0164 1D4B     		ldr	r3, .L47+24
 523 0166 0293     		str	r3, [sp, #8]
 191:.\Generated_Source\PSoC4/CyFlash.c **** 
 524              		.loc 1 191 0
 525 0168 029B     		ldr	r3, [sp, #8]
 526 016a 2D04     		lsl	r5, r5, #16
 527              	.LVL33:
 528 016c 1D43     		orr	r5, r3
 529 016e 0295     		str	r5, [sp, #8]
 193:.\Generated_Source\PSoC4/CyFlash.c ****                         CY_FLASH_CPUSS_SYSREQ_REG = CY_FLASH_CPUSS_REQ_START | CY_FLASH_API_OPCODE_
 530              		.loc 1 193 0
 531 0170 154B     		ldr	r3, .L47+4
 532 0172 02AA     		add	r2, sp, #8
 533 0174 1A60     		str	r2, [r3]
 194:.\Generated_Source\PSoC4/CyFlash.c ****                         CY_NOP;
 534              		.loc 1 194 0
 535 0176 1A49     		ldr	r1, .L47+28
 536 0178 154A     		ldr	r2, .L47+12
 537 017a 1160     		str	r1, [r2]
 195:.\Generated_Source\PSoC4/CyFlash.c ****                         retValue = CY_FLASH_API_RETURN;
 538              		.loc 1 195 0
 539              	@ 195 ".\Generated_Source\PSoC4\CyFlash.c" 1
 540 017c C046     		NOP
 541              	
 542              	@ 0 "" 2
 196:.\Generated_Source\PSoC4/CyFlash.c ****                     }
 543              		.loc 1 196 0
 544              		.code	16
 545 017e 1B68     		ldr	r3, [r3]
 546 0180 1B0F     		lsr	r3, r3, #28
ARM GAS  C:\Users\SPITFI~1\AppData\Local\Temp\cc9g4rtH.s 			page 26


 547 0182 0F2B     		cmp	r3, #15
 548 0184 04D1     		bne	.L36
 196:.\Generated_Source\PSoC4/CyFlash.c ****                     }
 549              		.loc 1 196 0 is_stmt 0 discriminator 1
 550 0186 104B     		ldr	r3, .L47+4
 551 0188 1B68     		ldr	r3, [r3]
 552 018a FF22     		mov	r2, #255
 553 018c 1340     		and	r3, r2
 554 018e 08E0     		b	.L37
 555              	.L36:
 196:.\Generated_Source\PSoC4/CyFlash.c ****                     }
 556              		.loc 1 196 0 discriminator 2
 557 0190 0D4B     		ldr	r3, .L47+4
 558 0192 1B68     		ldr	r3, [r3]
 559 0194 1B0F     		lsr	r3, r3, #28
 560 0196 0A2B     		cmp	r3, #10
 561 0198 02D0     		beq	.L46
 196:.\Generated_Source\PSoC4/CyFlash.c ****                     }
 562              		.loc 1 196 0 discriminator 4
 563 019a 0B4B     		ldr	r3, .L47+4
 564 019c 1B68     		ldr	r3, [r3]
 565 019e 00E0     		b	.L37
 566              	.L46:
 196:.\Generated_Source\PSoC4/CyFlash.c ****                     }
 567              		.loc 1 196 0
 568 01a0 0023     		mov	r3, #0
 569              	.L37:
 196:.\Generated_Source\PSoC4/CyFlash.c ****                     }
 570              		.loc 1 196 0 discriminator 8
 571 01a2 1593     		str	r3, [sp, #84]
 572              	.L32:
 201:.\Generated_Source\PSoC4/CyFlash.c ****             {
 573              		.loc 1 201 0 is_stmt 1
 574 01a4 149B     		ldr	r3, [sp, #80]
 575 01a6 002B     		cmp	r3, #0
 576 01a8 02D1     		bne	.L39
 203:.\Generated_Source\PSoC4/CyFlash.c ****             }
 577              		.loc 1 203 0
 578 01aa FFF7FEFF 		bl	CySysFlashClockRestore
 579              	.LVL34:
 580 01ae 1490     		str	r0, [sp, #80]
 581              	.L39:
 206:.\Generated_Source\PSoC4/CyFlash.c ****         }
 582              		.loc 1 206 0
 583 01b0 0198     		ldr	r0, [sp, #4]
 584 01b2 FFF7FEFF 		bl	CyExitCriticalSection
 585              	.LVL35:
 586 01b6 01E0     		b	.L26
 587              	.LVL36:
 588              	.L17:
 211:.\Generated_Source\PSoC4/CyFlash.c ****     }
 589              		.loc 1 211 0
 590 01b8 0423     		mov	r3, #4
 591 01ba 1593     		str	r3, [sp, #84]
 592              	.LVL37:
 593              	.L26:
 214:.\Generated_Source\PSoC4/CyFlash.c **** }
ARM GAS  C:\Users\SPITFI~1\AppData\Local\Temp\cc9g4rtH.s 			page 27


 594              		.loc 1 214 0
 595 01bc 1598     		ldr	r0, [sp, #84]
 215:.\Generated_Source\PSoC4/CyFlash.c **** 
 596              		.loc 1 215 0
 597 01be 17B0     		add	sp, sp, #92
 598              		@ sp needed
 599 01c0 F0BD     		pop	{r4, r5, r6, r7, pc}
 600              	.L48:
 601 01c2 C046     		.align	2
 602              	.L47:
 603 01c4 B6D70000 		.word	55222
 604 01c8 08001040 		.word	1074790408
 605 01cc 04000080 		.word	-2147483644
 606 01d0 04001040 		.word	1074790404
 607 01d4 B6D80000 		.word	55478
 608 01d8 05000080 		.word	-2147483643
 609 01dc B6D90000 		.word	55734
 610 01e0 06000080 		.word	-2147483642
 611              		.cfi_endproc
 612              	.LFE0:
 613              		.size	CySysFlashWriteRow, .-CySysFlashWriteRow
 614              		.section	.text.CySysFlashSetWaitCycles,"ax",%progbits
 615              		.align	2
 616              		.global	CySysFlashSetWaitCycles
 617              		.code	16
 618              		.thumb_func
 619              		.type	CySysFlashSetWaitCycles, %function
 620              	CySysFlashSetWaitCycles:
 621              	.LFB1:
 422:.\Generated_Source\PSoC4/CyFlash.c ****     uint8  interruptState;
 622              		.loc 1 422 0
 623              		.cfi_startproc
 624              	.LVL38:
 625 0000 38B5     		push	{r3, r4, r5, lr}
 626              		.cfi_def_cfa_offset 16
 627              		.cfi_offset 3, -16
 628              		.cfi_offset 4, -12
 629              		.cfi_offset 5, -8
 630              		.cfi_offset 14, -4
 631 0002 041C     		mov	r4, r0
 425:.\Generated_Source\PSoC4/CyFlash.c **** 
 632              		.loc 1 425 0
 633 0004 FFF7FEFF 		bl	CyEnterCriticalSection
 634              	.LVL39:
 635 0008 051C     		mov	r5, r0
 636              	.LVL40:
 440:.\Generated_Source\PSoC4/CyFlash.c ****             {
 637              		.loc 1 440 0
 638 000a 102C     		cmp	r4, #16
 639 000c 05D8     		bhi	.L50
 442:.\Generated_Source\PSoC4/CyFlash.c ****             } else
 640              		.loc 1 442 0
 641 000e 104A     		ldr	r2, .L54
 642 0010 1368     		ldr	r3, [r2]
 643 0012 0321     		mov	r1, #3
 644 0014 8B43     		bic	r3, r1
 645 0016 1360     		str	r3, [r2]
ARM GAS  C:\Users\SPITFI~1\AppData\Local\Temp\cc9g4rtH.s 			page 28


 646 0018 16E0     		b	.L51
 647              	.L50:
 444:.\Generated_Source\PSoC4/CyFlash.c ****             {
 648              		.loc 1 444 0
 649 001a 202C     		cmp	r4, #32
 650 001c 07D8     		bhi	.L52
 446:.\Generated_Source\PSoC4/CyFlash.c ****             } else
 651              		.loc 1 446 0
 652 001e 0C49     		ldr	r1, .L54
 653 0020 0B68     		ldr	r3, [r1]
 654 0022 0322     		mov	r2, #3
 655 0024 9343     		bic	r3, r2
 656 0026 023A     		sub	r2, r2, #2
 657 0028 1343     		orr	r3, r2
 658 002a 0B60     		str	r3, [r1]
 659 002c 0CE0     		b	.L51
 660              	.L52:
 449:.\Generated_Source\PSoC4/CyFlash.c ****                 {
 661              		.loc 1 449 0
 662 002e 302C     		cmp	r4, #48
 663 0030 07D8     		bhi	.L53
 451:.\Generated_Source\PSoC4/CyFlash.c ****                 }
 664              		.loc 1 451 0
 665 0032 0749     		ldr	r1, .L54
 666 0034 0B68     		ldr	r3, [r1]
 667 0036 0322     		mov	r2, #3
 668 0038 9343     		bic	r3, r2
 669 003a 013A     		sub	r2, r2, #1
 670 003c 1343     		orr	r3, r2
 671 003e 0B60     		str	r3, [r1]
 672 0040 02E0     		b	.L51
 673              	.L53:
 458:.\Generated_Source\PSoC4/CyFlash.c ****         }
 674              		.loc 1 458 0 discriminator 1
 675 0042 0020     		mov	r0, #0
 676 0044 FFF7FEFF 		bl	CyHalt
 677              	.LVL41:
 678              	.L51:
 463:.\Generated_Source\PSoC4/CyFlash.c **** }
 679              		.loc 1 463 0
 680 0048 281C     		mov	r0, r5
 681 004a FFF7FEFF 		bl	CyExitCriticalSection
 682              	.LVL42:
 464:.\Generated_Source\PSoC4/CyFlash.c **** 
 683              		.loc 1 464 0
 684              		@ sp needed
 685              	.LVL43:
 686              	.LVL44:
 687 004e 38BD     		pop	{r3, r4, r5, pc}
 688              	.L55:
 689              		.align	2
 690              	.L54:
 691 0050 30001040 		.word	1074790448
 692              		.cfi_endproc
 693              	.LFE1:
 694              		.size	CySysFlashSetWaitCycles, .-CySysFlashSetWaitCycles
 695              		.bss
ARM GAS  C:\Users\SPITFI~1\AppData\Local\Temp\cc9g4rtH.s 			page 29


 696              		.align	2
 697              		.set	.LANCHOR0,. + 0
 698              		.type	cySysFlashBackup, %object
 699              		.size	cySysFlashBackup, 12
 700              	cySysFlashBackup:
 701 0000 00000000 		.space	12
 701      00000000 
 701      00000000 
 702              		.text
 703              	.Letext0:
 704              		.file 2 ".\\Generated_Source\\PSoC4\\cytypes.h"
 705              		.file 3 ".\\Generated_Source\\PSoC4\\CyFlash.h"
 706              		.file 4 ".\\Generated_Source\\PSoC4\\CyLib.h"