ARM GAS  C:\Users\SPITFI~1\AppData\Local\Temp\ccTvxQXd.s 			page 1


   1              		.cpu cortex-m0
   2              		.fpu softvfp
   3              		.eabi_attribute 20, 1
   4              		.eabi_attribute 21, 1
   5              		.eabi_attribute 23, 3
   6              		.eabi_attribute 24, 1
   7              		.eabi_attribute 25, 1
   8              		.eabi_attribute 26, 1
   9              		.eabi_attribute 30, 1
  10              		.eabi_attribute 34, 0
  11              		.eabi_attribute 18, 4
  12              		.code	16
  13              		.file	"CyLib.c"
  14              		.text
  15              	.Ltext0:
  16              		.cfi_sections	.debug_frame
  17              		.section	.text.CySysClkImoStart,"ax",%progbits
  18              		.align	2
  19              		.global	CySysClkImoStart
  20              		.code	16
  21              		.thumb_func
  22              		.type	CySysClkImoStart, %function
  23              	CySysClkImoStart:
  24              	.LFB0:
  25              		.file 1 ".\\Generated_Source\\PSoC4\\CyLib.c"
   1:.\Generated_Source\PSoC4/CyLib.c **** /***************************************************************************//**
   2:.\Generated_Source\PSoC4/CyLib.c **** * \file CyLib.c
   3:.\Generated_Source\PSoC4/CyLib.c **** * \version 5.40
   4:.\Generated_Source\PSoC4/CyLib.c **** *
   5:.\Generated_Source\PSoC4/CyLib.c **** * \brief Provides a system API for the Clocking, Interrupts, SysTick, and
   6:.\Generated_Source\PSoC4/CyLib.c **** * Voltage Detect.
   7:.\Generated_Source\PSoC4/CyLib.c **** *
   8:.\Generated_Source\PSoC4/CyLib.c **** * \note Documentation of the API's in this file is located in the PSoC 4 System
   9:.\Generated_Source\PSoC4/CyLib.c **** * Reference Guide provided with PSoC Creator.
  10:.\Generated_Source\PSoC4/CyLib.c **** *
  11:.\Generated_Source\PSoC4/CyLib.c **** ********************************************************************************
  12:.\Generated_Source\PSoC4/CyLib.c **** * \copyright
  13:.\Generated_Source\PSoC4/CyLib.c **** * Copyright 2010-2016, Cypress Semiconductor Corporation.  All rights reserved.
  14:.\Generated_Source\PSoC4/CyLib.c **** * You may use this file only in accordance with the license, terms, conditions,
  15:.\Generated_Source\PSoC4/CyLib.c **** * disclaimers, and limitations in the end user license agreement accompanying
  16:.\Generated_Source\PSoC4/CyLib.c **** * the software package with which this file was provided.
  17:.\Generated_Source\PSoC4/CyLib.c **** *******************************************************************************/
  18:.\Generated_Source\PSoC4/CyLib.c **** 
  19:.\Generated_Source\PSoC4/CyLib.c **** #include "CyLib.h"
  20:.\Generated_Source\PSoC4/CyLib.c **** 
  21:.\Generated_Source\PSoC4/CyLib.c **** /* CySysClkWriteImoFreq() || CySysClkImoEnableWcoLock() */
  22:.\Generated_Source\PSoC4/CyLib.c **** #if ((CY_IP_SRSSV2 && CY_IP_FMLT) || CY_IP_IMO_TRIMMABLE_BY_WCO)
  23:.\Generated_Source\PSoC4/CyLib.c ****     #include "CyFlash.h"
  24:.\Generated_Source\PSoC4/CyLib.c **** #endif /* (CY_IP_SRSSV2 && CY_IP_FMLT) */
  25:.\Generated_Source\PSoC4/CyLib.c **** 
  26:.\Generated_Source\PSoC4/CyLib.c **** /* Do not use these definitions directly in your application */
  27:.\Generated_Source\PSoC4/CyLib.c **** uint32 cydelayFreqHz  = CYDEV_BCLK__SYSCLK__HZ;
  28:.\Generated_Source\PSoC4/CyLib.c **** uint32 cydelayFreqKhz = (CYDEV_BCLK__SYSCLK__HZ + CY_DELAY_1K_MINUS_1_THRESHOLD) / CY_DELAY_1K_THRE
  29:.\Generated_Source\PSoC4/CyLib.c **** uint8  cydelayFreqMhz = (uint8)((CYDEV_BCLK__SYSCLK__HZ + CY_DELAY_1M_MINUS_1_THRESHOLD) / CY_DELAY
  30:.\Generated_Source\PSoC4/CyLib.c **** uint32 cydelay32kMs   = CY_DELAY_MS_OVERFLOW * ((CYDEV_BCLK__SYSCLK__HZ + CY_DELAY_1K_MINUS_1_THRES
  31:.\Generated_Source\PSoC4/CyLib.c ****                         CY_DELAY_1K_THRESHOLD);
  32:.\Generated_Source\PSoC4/CyLib.c **** 
ARM GAS  C:\Users\SPITFI~1\AppData\Local\Temp\ccTvxQXd.s 			page 2


  33:.\Generated_Source\PSoC4/CyLib.c **** 
  34:.\Generated_Source\PSoC4/CyLib.c **** static cySysTickCallback CySysTickCallbacks[CY_SYS_SYST_NUM_OF_CALLBACKS];
  35:.\Generated_Source\PSoC4/CyLib.c **** static void CySysTickServiceCallbacks(void);
  36:.\Generated_Source\PSoC4/CyLib.c **** #if (CY_IP_SRSSV2 && CY_IP_PLL)
  37:.\Generated_Source\PSoC4/CyLib.c ****     static uint32 CySysClkPllGetBypassMode(uint32 pll);
  38:.\Generated_Source\PSoC4/CyLib.c ****     static cystatus CySysClkPllConfigChangeAllowed(uint32 pll);
  39:.\Generated_Source\PSoC4/CyLib.c **** #endif /* #if (CY_IP_SRSSV2 && CY_IP_PLL) */
  40:.\Generated_Source\PSoC4/CyLib.c **** 
  41:.\Generated_Source\PSoC4/CyLib.c **** 
  42:.\Generated_Source\PSoC4/CyLib.c **** /***************************************************************************//**
  43:.\Generated_Source\PSoC4/CyLib.c **** * Indicates whether or not the SysTick has been initialized. The variable is
  44:.\Generated_Source\PSoC4/CyLib.c **** * initialized to 0 and set to 1 the first time CySysTickStart() is called.
  45:.\Generated_Source\PSoC4/CyLib.c **** *
  46:.\Generated_Source\PSoC4/CyLib.c **** * This allows the component to restart without reinitialization after the first
  47:.\Generated_Source\PSoC4/CyLib.c **** * call to the CySysTickStart() routine.
  48:.\Generated_Source\PSoC4/CyLib.c **** *
  49:.\Generated_Source\PSoC4/CyLib.c **** * If reinitialization of the SysTick is required, call CySysTickInit() before
  50:.\Generated_Source\PSoC4/CyLib.c **** * calling CySysTickStart(). Alternatively, the SysTick can be reinitialized by
  51:.\Generated_Source\PSoC4/CyLib.c **** * calling the CySysTickInit() and CySysTickEnable() functions.
  52:.\Generated_Source\PSoC4/CyLib.c **** *******************************************************************************/
  53:.\Generated_Source\PSoC4/CyLib.c **** uint32 CySysTickInitVar = 0u;
  54:.\Generated_Source\PSoC4/CyLib.c **** 
  55:.\Generated_Source\PSoC4/CyLib.c **** 
  56:.\Generated_Source\PSoC4/CyLib.c **** #if(CY_IP_SRSSV2)
  57:.\Generated_Source\PSoC4/CyLib.c ****         /* Conversion between CySysClkWriteImoFreq() parameter and register's value */
  58:.\Generated_Source\PSoC4/CyLib.c ****         const uint8 cyImoFreqMhz2Reg[CY_SYS_CLK_IMO_FREQ_TABLE_SIZE] = {
  59:.\Generated_Source\PSoC4/CyLib.c ****             /*  3 MHz */ 0x03u,  /*  4 MHz */ 0x04u,  /*  5 MHz */ 0x05u,  /*  6 MHz */ 0x06u,
  60:.\Generated_Source\PSoC4/CyLib.c ****             /*  7 MHz */ 0x07u,  /*  8 MHz */ 0x08u,  /*  9 MHz */ 0x09u,  /* 10 MHz */ 0x0Au,
  61:.\Generated_Source\PSoC4/CyLib.c ****             /* 11 MHz */ 0x0Bu,  /* 12 MHz */ 0x0Cu,  /* 13 MHz */ 0x0Eu,  /* 14 MHz */ 0x0Fu,
  62:.\Generated_Source\PSoC4/CyLib.c ****             /* 15 MHz */ 0x10u,  /* 16 MHz */ 0x11u,  /* 17 MHz */ 0x12u,  /* 18 MHz */ 0x13u,
  63:.\Generated_Source\PSoC4/CyLib.c ****             /* 19 MHz */ 0x14u,  /* 20 MHz */ 0x15u,  /* 21 MHz */ 0x16u,  /* 22 MHz */ 0x17u,
  64:.\Generated_Source\PSoC4/CyLib.c ****             /* 23 MHz */ 0x18u,  /* 24 MHz */ 0x19u,  /* 25 MHz */ 0x1Bu,  /* 26 MHz */ 0x1Cu,
  65:.\Generated_Source\PSoC4/CyLib.c ****             /* 27 MHz */ 0x1Du,  /* 28 MHz */ 0x1Eu,  /* 29 MHz */ 0x1Fu,  /* 30 MHz */ 0x20u,
  66:.\Generated_Source\PSoC4/CyLib.c ****             /* 31 MHz */ 0x21u,  /* 32 MHz */ 0x22u,  /* 33 MHz */ 0x23u,  /* 34 MHz */ 0x25u,
  67:.\Generated_Source\PSoC4/CyLib.c ****             /* 35 MHz */ 0x26u,  /* 36 MHz */ 0x27u,  /* 37 MHz */ 0x28u,  /* 38 MHz */ 0x29u,
  68:.\Generated_Source\PSoC4/CyLib.c ****             /* 39 MHz */ 0x2Au,  /* 40 MHz */ 0x2Bu,  /* 41 MHz */ 0x2Eu,  /* 42 MHz */ 0x2Fu,
  69:.\Generated_Source\PSoC4/CyLib.c ****             /* 43 MHz */ 0x30u,  /* 44 MHz */ 0x31u,  /* 45 MHz */ 0x32u,  /* 46 MHz */ 0x33u,
  70:.\Generated_Source\PSoC4/CyLib.c ****             /* 47 MHz */ 0x34u,  /* 48 MHz */ 0x35u };
  71:.\Generated_Source\PSoC4/CyLib.c **** #endif /* (CY_IP_SRSSV2) */
  72:.\Generated_Source\PSoC4/CyLib.c **** 
  73:.\Generated_Source\PSoC4/CyLib.c **** #if (CY_IP_IMO_TRIMMABLE_BY_WCO)
  74:.\Generated_Source\PSoC4/CyLib.c ****         /* Conversion between IMO frequency and WCO DPLL max offset steps */
  75:.\Generated_Source\PSoC4/CyLib.c ****         const uint8 cyImoFreqMhz2DpllOffset[CY_SYS_CLK_IMO_FREQ_WCO_DPLL_TABLE_SIZE] = {
  76:.\Generated_Source\PSoC4/CyLib.c ****             /* 26 MHz */  238u, /* 27 MHz */  219u, /* 28 MHz */  201u, /* 29 MHz */  185u,
  77:.\Generated_Source\PSoC4/CyLib.c ****             /* 30 MHz */  170u, /* 31 MHz */  155u, /* 32 MHz */  142u, /* 33 MHz */  130u,
  78:.\Generated_Source\PSoC4/CyLib.c ****             /* 34 MHz */  118u, /* 35 MHz */  107u, /* 36 MHz */   96u, /* 37 MHz */  86u,
  79:.\Generated_Source\PSoC4/CyLib.c ****             /* 38 MHz */   77u, /* 39 MHz */   68u, /* 40 MHz */   59u, /* 41 MHz */  51u,
  80:.\Generated_Source\PSoC4/CyLib.c ****             /* 42 MHz */   44u, /* 43 MHz */   36u, /* 44 MHz */   29u, /* 45 MHz */  23u,
  81:.\Generated_Source\PSoC4/CyLib.c ****             /* 46 MHz */   16u, /* 47 MHz */   10u, /* 48 MHz */   4u };
  82:.\Generated_Source\PSoC4/CyLib.c **** #endif /* (CY_IP_IMO_TRIMMABLE_BY_WCO) */
  83:.\Generated_Source\PSoC4/CyLib.c **** 
  84:.\Generated_Source\PSoC4/CyLib.c **** /* Stored CY_SYS_CLK_IMO_TRIM4_REG when modified for USB lock */
  85:.\Generated_Source\PSoC4/CyLib.c **** #if (CY_IP_IMO_TRIMMABLE_BY_USB && CY_IP_SRSSV2)
  86:.\Generated_Source\PSoC4/CyLib.c ****     uint32 CySysClkImoTrim4 = 0u;
  87:.\Generated_Source\PSoC4/CyLib.c **** #endif /* (CY_IP_IMO_TRIMMABLE_BY_USB && CY_IP_SRSSV2) */
  88:.\Generated_Source\PSoC4/CyLib.c **** 
  89:.\Generated_Source\PSoC4/CyLib.c **** 
ARM GAS  C:\Users\SPITFI~1\AppData\Local\Temp\ccTvxQXd.s 			page 3


  90:.\Generated_Source\PSoC4/CyLib.c **** /*******************************************************************************
  91:.\Generated_Source\PSoC4/CyLib.c **** * Function Name: CySysClkImoStart
  92:.\Generated_Source\PSoC4/CyLib.c **** ****************************************************************************//**
  93:.\Generated_Source\PSoC4/CyLib.c **** *
  94:.\Generated_Source\PSoC4/CyLib.c **** * Enables the IMO.
  95:.\Generated_Source\PSoC4/CyLib.c **** *
  96:.\Generated_Source\PSoC4/CyLib.c **** * For PSoC 4100M / PSoC 4200M / PSoC 4000S / PSoC 4100S / PSoC 4400 devices,
  97:.\Generated_Source\PSoC4/CyLib.c **** * this function will also enable WCO lock if selected in the Design Wide
  98:.\Generated_Source\PSoC4/CyLib.c **** * Resources tab.
  99:.\Generated_Source\PSoC4/CyLib.c **** *
 100:.\Generated_Source\PSoC4/CyLib.c **** * For PSoC 4200L / devices, this function will also enable USB lock if selected
 101:.\Generated_Source\PSoC4/CyLib.c **** * in the Design Wide Resources tab.
 102:.\Generated_Source\PSoC4/CyLib.c **** *
 103:.\Generated_Source\PSoC4/CyLib.c **** *******************************************************************************/
 104:.\Generated_Source\PSoC4/CyLib.c **** void CySysClkImoStart(void)
 105:.\Generated_Source\PSoC4/CyLib.c **** {
  26              		.loc 1 105 0
  27              		.cfi_startproc
 106:.\Generated_Source\PSoC4/CyLib.c ****     CY_SYS_CLK_IMO_CONFIG_REG |= CY_SYS_CLK_IMO_CONFIG_ENABLE;
  28              		.loc 1 106 0
  29 0000 034A     		ldr	r2, .L2
  30 0002 1368     		ldr	r3, [r2]
  31 0004 8021     		mov	r1, #128
  32 0006 0906     		lsl	r1, r1, #24
  33 0008 0B43     		orr	r3, r1
  34 000a 1360     		str	r3, [r2]
 107:.\Generated_Source\PSoC4/CyLib.c **** 
 108:.\Generated_Source\PSoC4/CyLib.c ****     #if (CY_IP_IMO_TRIMMABLE_BY_WCO)
 109:.\Generated_Source\PSoC4/CyLib.c ****         #if (CYDEV_IMO_TRIMMED_BY_WCO == 1u)
 110:.\Generated_Source\PSoC4/CyLib.c ****             CySysClkImoEnableWcoLock();
 111:.\Generated_Source\PSoC4/CyLib.c ****         #endif  /* (CYDEV_IMO_TRIMMED_BY_WCO == 1u) */
 112:.\Generated_Source\PSoC4/CyLib.c ****     #endif  /* (CY_IP_IMO_TRIMMABLE_BY_WCO) */
 113:.\Generated_Source\PSoC4/CyLib.c **** 
 114:.\Generated_Source\PSoC4/CyLib.c **** 
 115:.\Generated_Source\PSoC4/CyLib.c ****     #if (CY_IP_IMO_TRIMMABLE_BY_USB)
 116:.\Generated_Source\PSoC4/CyLib.c ****         #if (CYDEV_IMO_TRIMMED_BY_USB == 1u)
 117:.\Generated_Source\PSoC4/CyLib.c ****             CySysClkImoEnableUsbLock();
 118:.\Generated_Source\PSoC4/CyLib.c ****         #endif  /* (CYDEV_IMO_TRIMMED_BY_USB == 1u) */
 119:.\Generated_Source\PSoC4/CyLib.c ****     #endif  /* (CY_IP_IMO_TRIMMABLE_BY_USB) */
 120:.\Generated_Source\PSoC4/CyLib.c **** 
 121:.\Generated_Source\PSoC4/CyLib.c **** }
  35              		.loc 1 121 0
  36              		@ sp needed
  37 000c 7047     		bx	lr
  38              	.L3:
  39 000e C046     		.align	2
  40              	.L2:
  41 0010 30000340 		.word	1073938480
  42              		.cfi_endproc
  43              	.LFE0:
  44              		.size	CySysClkImoStart, .-CySysClkImoStart
  45              		.section	.text.CySysClkImoStop,"ax",%progbits
  46              		.align	2
  47              		.global	CySysClkImoStop
  48              		.code	16
  49              		.thumb_func
  50              		.type	CySysClkImoStop, %function
ARM GAS  C:\Users\SPITFI~1\AppData\Local\Temp\ccTvxQXd.s 			page 4


  51              	CySysClkImoStop:
  52              	.LFB1:
 122:.\Generated_Source\PSoC4/CyLib.c **** 
 123:.\Generated_Source\PSoC4/CyLib.c **** 
 124:.\Generated_Source\PSoC4/CyLib.c **** /*******************************************************************************
 125:.\Generated_Source\PSoC4/CyLib.c **** * Function Name: CySysClkImoStop
 126:.\Generated_Source\PSoC4/CyLib.c **** ****************************************************************************//**
 127:.\Generated_Source\PSoC4/CyLib.c **** *
 128:.\Generated_Source\PSoC4/CyLib.c **** * Disables the IMO.
 129:.\Generated_Source\PSoC4/CyLib.c **** *
 130:.\Generated_Source\PSoC4/CyLib.c **** * For PSoC 4100M / PSoC 4200M / PSoC 4000S / PSoC 4100S / PSoC 4400 devices,
 131:.\Generated_Source\PSoC4/CyLib.c **** * this function will also disable WCO lock.
 132:.\Generated_Source\PSoC4/CyLib.c **** *
 133:.\Generated_Source\PSoC4/CyLib.c **** * For PSoC PSoC 4200L devices, this function will also disable USB lock.
 134:.\Generated_Source\PSoC4/CyLib.c **** *
 135:.\Generated_Source\PSoC4/CyLib.c **** *******************************************************************************/
 136:.\Generated_Source\PSoC4/CyLib.c **** void CySysClkImoStop(void)
 137:.\Generated_Source\PSoC4/CyLib.c **** {
  53              		.loc 1 137 0
  54              		.cfi_startproc
 138:.\Generated_Source\PSoC4/CyLib.c ****     #if (CY_IP_IMO_TRIMMABLE_BY_WCO)
 139:.\Generated_Source\PSoC4/CyLib.c ****         CySysClkImoDisableWcoLock();
 140:.\Generated_Source\PSoC4/CyLib.c ****     #endif  /* (CY_IP_IMO_TRIMMABLE_BY_WCO) */
 141:.\Generated_Source\PSoC4/CyLib.c **** 
 142:.\Generated_Source\PSoC4/CyLib.c ****     #if (CY_IP_IMO_TRIMMABLE_BY_USB)
 143:.\Generated_Source\PSoC4/CyLib.c ****         CySysClkImoDisableUsbLock();
 144:.\Generated_Source\PSoC4/CyLib.c ****     #endif  /* (CY_IP_IMO_TRIMMABLE_BY_USB) */
 145:.\Generated_Source\PSoC4/CyLib.c **** 
 146:.\Generated_Source\PSoC4/CyLib.c ****     CY_SYS_CLK_IMO_CONFIG_REG &= ( uint32 ) ( ~( uint32 )CY_SYS_CLK_IMO_CONFIG_ENABLE);
  55              		.loc 1 146 0
  56 0000 024A     		ldr	r2, .L5
  57 0002 1368     		ldr	r3, [r2]
  58 0004 5B00     		lsl	r3, r3, #1
  59 0006 5B08     		lsr	r3, r3, #1
  60 0008 1360     		str	r3, [r2]
 147:.\Generated_Source\PSoC4/CyLib.c **** }
  61              		.loc 1 147 0
  62              		@ sp needed
  63 000a 7047     		bx	lr
  64              	.L6:
  65              		.align	2
  66              	.L5:
  67 000c 30000340 		.word	1073938480
  68              		.cfi_endproc
  69              	.LFE1:
  70              		.size	CySysClkImoStop, .-CySysClkImoStop
  71              		.section	.text.CySysClkWriteHfclkDirect,"ax",%progbits
  72              		.align	2
  73              		.global	CySysClkWriteHfclkDirect
  74              		.code	16
  75              		.thumb_func
  76              		.type	CySysClkWriteHfclkDirect, %function
  77              	CySysClkWriteHfclkDirect:
  78              	.LFB2:
 148:.\Generated_Source\PSoC4/CyLib.c **** 
 149:.\Generated_Source\PSoC4/CyLib.c **** #if (CY_IP_IMO_TRIMMABLE_BY_WCO)
 150:.\Generated_Source\PSoC4/CyLib.c **** 
ARM GAS  C:\Users\SPITFI~1\AppData\Local\Temp\ccTvxQXd.s 			page 5


 151:.\Generated_Source\PSoC4/CyLib.c ****     /*******************************************************************************
 152:.\Generated_Source\PSoC4/CyLib.c ****     * Function Name: CySysClkImoEnableWcoLock
 153:.\Generated_Source\PSoC4/CyLib.c ****     ****************************************************************************//**
 154:.\Generated_Source\PSoC4/CyLib.c ****     *
 155:.\Generated_Source\PSoC4/CyLib.c ****     * Enables the IMO to WCO lock feature. This function works only if the WCO is
 156:.\Generated_Source\PSoC4/CyLib.c ****     * already enabled. If the WCO is not enabled then this function returns
 157:.\Generated_Source\PSoC4/CyLib.c ****     * without enabling the lock feature.
 158:.\Generated_Source\PSoC4/CyLib.c ****     *
 159:.\Generated_Source\PSoC4/CyLib.c ****     * It takes up to 20 ms for the IMO to stabilize. The delay is implemented with
 160:.\Generated_Source\PSoC4/CyLib.c ****     * CyDelay() function. The delay interval is measured based on the system
 161:.\Generated_Source\PSoC4/CyLib.c ****     * frequency defined by PSoC Creator at build time. If System clock frequency
 162:.\Generated_Source\PSoC4/CyLib.c ****     * is changed in runtime, the CyDelayFreq() with the appropriate parameter
 163:.\Generated_Source\PSoC4/CyLib.c ****     * should be called.
 164:.\Generated_Source\PSoC4/CyLib.c ****     *
 165:.\Generated_Source\PSoC4/CyLib.c ****     * For PSoC 4200L devices, note that the IMO can lock to either WCO or USB
 166:.\Generated_Source\PSoC4/CyLib.c ****     * but not both.
 167:.\Generated_Source\PSoC4/CyLib.c ****     *
 168:.\Generated_Source\PSoC4/CyLib.c ****     * This function is applicable for PSoC 4100M / PSoC 4200M / PSoC 4000S /
 169:.\Generated_Source\PSoC4/CyLib.c ****     * PSoC 4100S / PSoC 4400 / PSoC 4200L.
 170:.\Generated_Source\PSoC4/CyLib.c ****     *
 171:.\Generated_Source\PSoC4/CyLib.c ****     *******************************************************************************/
 172:.\Generated_Source\PSoC4/CyLib.c ****     void CySysClkImoEnableWcoLock(void)
 173:.\Generated_Source\PSoC4/CyLib.c ****     {
 174:.\Generated_Source\PSoC4/CyLib.c ****         #if(CY_IP_SRSSV2)
 175:.\Generated_Source\PSoC4/CyLib.c ****             uint32 i;
 176:.\Generated_Source\PSoC4/CyLib.c ****         #endif  /* (CY_IP_SRSSV2) */
 177:.\Generated_Source\PSoC4/CyLib.c **** 
 178:.\Generated_Source\PSoC4/CyLib.c ****         uint32 freq;
 179:.\Generated_Source\PSoC4/CyLib.c ****         uint8  interruptState;
 180:.\Generated_Source\PSoC4/CyLib.c ****         uint32 regTmp;
 181:.\Generated_Source\PSoC4/CyLib.c ****         uint32 lfLimit = 0u;
 182:.\Generated_Source\PSoC4/CyLib.c ****         volatile uint32 flashCtlReg;
 183:.\Generated_Source\PSoC4/CyLib.c **** 
 184:.\Generated_Source\PSoC4/CyLib.c ****         if (0u != CySysClkWcoEnabled())
 185:.\Generated_Source\PSoC4/CyLib.c ****         {
 186:.\Generated_Source\PSoC4/CyLib.c ****             interruptState = CyEnterCriticalSection();
 187:.\Generated_Source\PSoC4/CyLib.c **** 
 188:.\Generated_Source\PSoC4/CyLib.c ****             /* Set oscillator interface control port to WCO */
 189:.\Generated_Source\PSoC4/CyLib.c ****             #if (CY_IP_IMO_TRIMMABLE_BY_WCO && CY_IP_IMO_TRIMMABLE_BY_USB)
 190:.\Generated_Source\PSoC4/CyLib.c ****                 CY_SYS_CLK_OSCINTF_CTL_REG =
 191:.\Generated_Source\PSoC4/CyLib.c ****                     (CY_SYS_CLK_OSCINTF_CTL_REG & (uint32) ~CY_SYS_CLK_OSCINTF_CTL_PORT_SEL_MASK) |
 192:.\Generated_Source\PSoC4/CyLib.c ****                     CY_SYS_CLK_OSCINTF_CTL_PORT_SEL_WCO;
 193:.\Generated_Source\PSoC4/CyLib.c ****             #endif /* (CY_IP_IMO_TRIMMABLE_BY_WCO && CY_IP_IMO_TRIMMABLE_BY_USB) */
 194:.\Generated_Source\PSoC4/CyLib.c **** 
 195:.\Generated_Source\PSoC4/CyLib.c ****             /* Get current IMO frequency based on the register value */
 196:.\Generated_Source\PSoC4/CyLib.c ****             #if(CY_IP_SRSSV2)
 197:.\Generated_Source\PSoC4/CyLib.c ****                 freq = CY_SYS_CLK_IMO_MIN_FREQ_MHZ;
 198:.\Generated_Source\PSoC4/CyLib.c ****                 for(i = 0u; i < CY_SYS_CLK_IMO_FREQ_TABLE_SIZE; i++)
 199:.\Generated_Source\PSoC4/CyLib.c ****                 {
 200:.\Generated_Source\PSoC4/CyLib.c ****                     if ((uint8) (CY_SYS_CLK_IMO_TRIM2_REG & CY_SYS_CLK_IMO_FREQ_BITS_MASK) == cyImo
 201:.\Generated_Source\PSoC4/CyLib.c ****                     {
 202:.\Generated_Source\PSoC4/CyLib.c ****                         freq = i + CY_SYS_CLK_IMO_FREQ_TABLE_OFFSET;
 203:.\Generated_Source\PSoC4/CyLib.c ****                         break;
 204:.\Generated_Source\PSoC4/CyLib.c ****                     }
 205:.\Generated_Source\PSoC4/CyLib.c ****                 }
 206:.\Generated_Source\PSoC4/CyLib.c ****             #else
 207:.\Generated_Source\PSoC4/CyLib.c ****                 /* Calculate frequency by shifting register field value and adding constant. */
ARM GAS  C:\Users\SPITFI~1\AppData\Local\Temp\ccTvxQXd.s 			page 6


 208:.\Generated_Source\PSoC4/CyLib.c ****                 #if(CY_IP_SRSSLT)
 209:.\Generated_Source\PSoC4/CyLib.c ****                     freq = (((uint32) ((CY_SYS_CLK_IMO_SELECT_REG & ((uint32) CY_SYS_CLK_IMO_SELECT
 210:.\Generated_Source\PSoC4/CyLib.c ****                                         CY_SYS_CLK_IMO_SELECT_FREQ_SHIFT) + CY_SYS_CLK_IMO_MIN_FREQ
 211:.\Generated_Source\PSoC4/CyLib.c ****                                       ((CY_SYS_CLK_SELECT_REG >> CY_SYS_CLK_SELECT_HFCLK_DIV_SHIFT)
 212:.\Generated_Source\PSoC4/CyLib.c ****                                        (uint32) CY_SYS_CLK_SELECT_HFCLK_DIV_MASK));
 213:.\Generated_Source\PSoC4/CyLib.c ****                 #else
 214:.\Generated_Source\PSoC4/CyLib.c ****                     freq = ((uint32) ((CY_SYS_CLK_IMO_SELECT_REG & ((uint32) CY_SYS_CLK_IMO_SELECT_
 215:.\Generated_Source\PSoC4/CyLib.c ****                                        CY_SYS_CLK_IMO_SELECT_FREQ_SHIFT) + CY_SYS_CLK_IMO_MIN_FREQ_
 216:.\Generated_Source\PSoC4/CyLib.c ****                 #endif  /* (CY_IP_SRSSLT) */
 217:.\Generated_Source\PSoC4/CyLib.c **** 
 218:.\Generated_Source\PSoC4/CyLib.c ****             #endif  /* (CY_IP_SRSSV2) */
 219:.\Generated_Source\PSoC4/CyLib.c **** 
 220:.\Generated_Source\PSoC4/CyLib.c ****             /* For the WCO locking mode, the IMO gain needs to be CY_SYS_CLK_IMO_TRIM4_GAIN */
 221:.\Generated_Source\PSoC4/CyLib.c ****             #if(CY_IP_SRSSV2)
 222:.\Generated_Source\PSoC4/CyLib.c ****                 if ((CY_SYS_CLK_IMO_TRIM4_REG & CY_SYS_CLK_IMO_TRIM4_GAIN_MASK) == 0u)
 223:.\Generated_Source\PSoC4/CyLib.c ****                 {
 224:.\Generated_Source\PSoC4/CyLib.c **** 			         CY_SYS_CLK_IMO_TRIM4_REG = (CY_SYS_CLK_IMO_TRIM4_REG & (uint32) ~CY_SYS_CLK_IMO_TRIM4_G
 225:.\Generated_Source\PSoC4/CyLib.c **** 			                  				     CY_SYS_CLK_IMO_TRIM4_WCO_GAIN;
 226:.\Generated_Source\PSoC4/CyLib.c ****                 }
 227:.\Generated_Source\PSoC4/CyLib.c ****             #endif /* (CY_IP_SRSSV2) */
 228:.\Generated_Source\PSoC4/CyLib.c **** 
 229:.\Generated_Source\PSoC4/CyLib.c ****             regTmp  = CY_SYS_CLK_WCO_DPLL_REG & ~(CY_SYS_CLK_WCO_DPLL_MULT_MASK |
 230:.\Generated_Source\PSoC4/CyLib.c ****                                                   CY_SYS_CLK_WCO_CONFIG_DPLL_LF_IGAIN_MASK |
 231:.\Generated_Source\PSoC4/CyLib.c ****                                                   CY_SYS_CLK_WCO_CONFIG_DPLL_LF_PGAIN_MASK |
 232:.\Generated_Source\PSoC4/CyLib.c ****                                                   CY_SYS_CLK_WCO_CONFIG_DPLL_LF_LIMIT_MASK);
 233:.\Generated_Source\PSoC4/CyLib.c **** 
 234:.\Generated_Source\PSoC4/CyLib.c ****             /* Set multiplier to determine IMO frequency in multiples of the WCO frequency */
 235:.\Generated_Source\PSoC4/CyLib.c ****             regTmp |= (CY_SYS_CLK_WCO_DPLL_MULT_VALUE(freq) & CY_SYS_CLK_WCO_DPLL_MULT_MASK);
 236:.\Generated_Source\PSoC4/CyLib.c **** 
 237:.\Generated_Source\PSoC4/CyLib.c ****             /* Set DPLL Loop Filter Integral and Proportional Gains Setting */
 238:.\Generated_Source\PSoC4/CyLib.c ****             regTmp |= (CY_SYS_CLK_WCO_CONFIG_DPLL_LF_IGAIN | CY_SYS_CLK_WCO_CONFIG_DPLL_LF_PGAIN);
 239:.\Generated_Source\PSoC4/CyLib.c **** 
 240:.\Generated_Source\PSoC4/CyLib.c ****             /* Set maximum allowed IMO offset */
 241:.\Generated_Source\PSoC4/CyLib.c ****             if (freq < CY_SYS_CLK_IMO_FREQ_WCO_DPLL_SAFE_POINT)
 242:.\Generated_Source\PSoC4/CyLib.c ****             {
 243:.\Generated_Source\PSoC4/CyLib.c ****                 regTmp |= (CY_SYS_CLK_WCO_CONFIG_DPLL_LF_LIMIT_MAX << CY_SYS_CLK_WCO_CONFIG_DPLL_LF
 244:.\Generated_Source\PSoC4/CyLib.c ****             }
 245:.\Generated_Source\PSoC4/CyLib.c ****             else
 246:.\Generated_Source\PSoC4/CyLib.c ****             {
 247:.\Generated_Source\PSoC4/CyLib.c ****                 lfLimit = (uint32) CY_SFLASH_IMO_TRIM_REG(freq - CY_SYS_CLK_IMO_MIN_FREQ_MHZ) +
 248:.\Generated_Source\PSoC4/CyLib.c ****                     cyImoFreqMhz2DpllOffset[freq - CY_SYS_CLK_IMO_FREQ_WCO_DPLL_TABLE_OFFSET];
 249:.\Generated_Source\PSoC4/CyLib.c **** 
 250:.\Generated_Source\PSoC4/CyLib.c ****                 lfLimit = (lfLimit > CY_SYS_CLK_WCO_CONFIG_DPLL_LF_LIMIT_MAX) ?
 251:.\Generated_Source\PSoC4/CyLib.c ****                     CY_SYS_CLK_WCO_CONFIG_DPLL_LF_LIMIT_MAX : lfLimit;
 252:.\Generated_Source\PSoC4/CyLib.c **** 
 253:.\Generated_Source\PSoC4/CyLib.c ****                 regTmp |= (lfLimit << CY_SYS_CLK_WCO_CONFIG_DPLL_LF_LIMIT_SHIFT);
 254:.\Generated_Source\PSoC4/CyLib.c ****             }
 255:.\Generated_Source\PSoC4/CyLib.c **** 
 256:.\Generated_Source\PSoC4/CyLib.c ****             CY_SYS_CLK_WCO_DPLL_REG = regTmp;
 257:.\Generated_Source\PSoC4/CyLib.c **** 
 258:.\Generated_Source\PSoC4/CyLib.c ****             flashCtlReg = CY_FLASH_CTL_REG;
 259:.\Generated_Source\PSoC4/CyLib.c ****             CySysFlashSetWaitCycles(CY_SYS_CLK_IMO_MAX_FREQ_MHZ);
 260:.\Generated_Source\PSoC4/CyLib.c ****             CY_SYS_CLK_WCO_CONFIG_REG |= CY_SYS_CLK_WCO_CONFIG_DPLL_ENABLE;
 261:.\Generated_Source\PSoC4/CyLib.c ****             CyDelay(CY_SYS_CLK_WCO_IMO_TIMEOUT_MS);
 262:.\Generated_Source\PSoC4/CyLib.c ****             CY_FLASH_CTL_REG = flashCtlReg;
 263:.\Generated_Source\PSoC4/CyLib.c **** 
 264:.\Generated_Source\PSoC4/CyLib.c ****             CyExitCriticalSection(interruptState);
ARM GAS  C:\Users\SPITFI~1\AppData\Local\Temp\ccTvxQXd.s 			page 7


 265:.\Generated_Source\PSoC4/CyLib.c ****         }
 266:.\Generated_Source\PSoC4/CyLib.c ****     }
 267:.\Generated_Source\PSoC4/CyLib.c **** 
 268:.\Generated_Source\PSoC4/CyLib.c **** 
 269:.\Generated_Source\PSoC4/CyLib.c ****     /*******************************************************************************
 270:.\Generated_Source\PSoC4/CyLib.c ****     * Function Name: CySysClkImoDisableWcoLock
 271:.\Generated_Source\PSoC4/CyLib.c ****     ****************************************************************************//**
 272:.\Generated_Source\PSoC4/CyLib.c ****     *
 273:.\Generated_Source\PSoC4/CyLib.c ****     * Disables the IMO to WCO lock feature.
 274:.\Generated_Source\PSoC4/CyLib.c ****     *
 275:.\Generated_Source\PSoC4/CyLib.c ****     * For PSoC 4200L devices, note that the IMO can lock to either WCO or USB
 276:.\Generated_Source\PSoC4/CyLib.c ****     * but not both.
 277:.\Generated_Source\PSoC4/CyLib.c ****     *
 278:.\Generated_Source\PSoC4/CyLib.c ****     * This function is applicable for PSoC 4100M / PSoC 4200M / PSoC 4000S /
 279:.\Generated_Source\PSoC4/CyLib.c ****     * PSoC 4100S / PSoC 4400 / PSoC 4200L.
 280:.\Generated_Source\PSoC4/CyLib.c ****     *
 281:.\Generated_Source\PSoC4/CyLib.c ****     *******************************************************************************/
 282:.\Generated_Source\PSoC4/CyLib.c ****     void CySysClkImoDisableWcoLock(void)
 283:.\Generated_Source\PSoC4/CyLib.c ****     {
 284:.\Generated_Source\PSoC4/CyLib.c ****         CY_SYS_CLK_WCO_CONFIG_REG &= (uint32) ~CY_SYS_CLK_WCO_CONFIG_DPLL_ENABLE;
 285:.\Generated_Source\PSoC4/CyLib.c ****     }
 286:.\Generated_Source\PSoC4/CyLib.c **** 
 287:.\Generated_Source\PSoC4/CyLib.c **** 
 288:.\Generated_Source\PSoC4/CyLib.c ****     /*******************************************************************************
 289:.\Generated_Source\PSoC4/CyLib.c ****     * Function Name: CySysClkImoGetWcoLock
 290:.\Generated_Source\PSoC4/CyLib.c ****     ****************************************************************************//**
 291:.\Generated_Source\PSoC4/CyLib.c ****     *
 292:.\Generated_Source\PSoC4/CyLib.c ****     * Reports the IMO to WCO lock enable state.
 293:.\Generated_Source\PSoC4/CyLib.c ****     *
 294:.\Generated_Source\PSoC4/CyLib.c ****     * This function is applicable for PSoC 4100M / PSoC 4200M / PSoC 4000S /
 295:.\Generated_Source\PSoC4/CyLib.c ****     * PSoC 4100S / PSoC 4400 / PSoC 4200L.
 296:.\Generated_Source\PSoC4/CyLib.c ****     *
 297:.\Generated_Source\PSoC4/CyLib.c ****     * \return 1 if IMO to WCO lock is enabled.
 298:.\Generated_Source\PSoC4/CyLib.c ****     * \return 0 if IMO to WCO lock is disabled.
 299:.\Generated_Source\PSoC4/CyLib.c ****     *
 300:.\Generated_Source\PSoC4/CyLib.c ****     *******************************************************************************/
 301:.\Generated_Source\PSoC4/CyLib.c ****     uint32 CySysClkImoGetWcoLock(void)
 302:.\Generated_Source\PSoC4/CyLib.c ****     {
 303:.\Generated_Source\PSoC4/CyLib.c ****         return ((0u != (CY_SYS_CLK_WCO_CONFIG_REG & CY_SYS_CLK_WCO_CONFIG_DPLL_ENABLE)) ?
 304:.\Generated_Source\PSoC4/CyLib.c ****                 (uint32) 1u :
 305:.\Generated_Source\PSoC4/CyLib.c ****                 (uint32) 0u);
 306:.\Generated_Source\PSoC4/CyLib.c ****     }
 307:.\Generated_Source\PSoC4/CyLib.c **** 
 308:.\Generated_Source\PSoC4/CyLib.c **** #endif /* (CY_IP_IMO_TRIMMABLE_BY_WCO) */
 309:.\Generated_Source\PSoC4/CyLib.c **** 
 310:.\Generated_Source\PSoC4/CyLib.c **** 
 311:.\Generated_Source\PSoC4/CyLib.c **** #if (CY_IP_IMO_TRIMMABLE_BY_USB)
 312:.\Generated_Source\PSoC4/CyLib.c **** 
 313:.\Generated_Source\PSoC4/CyLib.c ****     /*******************************************************************************
 314:.\Generated_Source\PSoC4/CyLib.c ****     * Function Name: CySysClkImoEnableUsbLock
 315:.\Generated_Source\PSoC4/CyLib.c ****     ****************************************************************************//**
 316:.\Generated_Source\PSoC4/CyLib.c ****     *
 317:.\Generated_Source\PSoC4/CyLib.c ****     * Enables the IMO to USB lock feature.
 318:.\Generated_Source\PSoC4/CyLib.c ****     *
 319:.\Generated_Source\PSoC4/CyLib.c ****     * This function must be called before CySysClkWriteImoFreq().
 320:.\Generated_Source\PSoC4/CyLib.c ****     *
 321:.\Generated_Source\PSoC4/CyLib.c ****     * This function is called from CySysClkImoStart() function if USB lock
ARM GAS  C:\Users\SPITFI~1\AppData\Local\Temp\ccTvxQXd.s 			page 8


 322:.\Generated_Source\PSoC4/CyLib.c ****     * selected in the Design Wide Resources tab.
 323:.\Generated_Source\PSoC4/CyLib.c ****     *
 324:.\Generated_Source\PSoC4/CyLib.c ****     * This is applicable for PSoC 4200L family of devices only. For PSoC 4200L
 325:.\Generated_Source\PSoC4/CyLib.c ****     * devices, the IMO can lock to either WCO or USB, but not both.
 326:.\Generated_Source\PSoC4/CyLib.c ****     *
 327:.\Generated_Source\PSoC4/CyLib.c ****     *******************************************************************************/
 328:.\Generated_Source\PSoC4/CyLib.c ****     void CySysClkImoEnableUsbLock(void)
 329:.\Generated_Source\PSoC4/CyLib.c ****     {
 330:.\Generated_Source\PSoC4/CyLib.c ****         /* Set oscillator interface control port to USB */
 331:.\Generated_Source\PSoC4/CyLib.c ****         #if (CY_IP_IMO_TRIMMABLE_BY_WCO && CY_IP_IMO_TRIMMABLE_BY_USB)
 332:.\Generated_Source\PSoC4/CyLib.c ****             CY_SYS_CLK_OSCINTF_CTL_REG = (CY_SYS_CLK_OSCINTF_CTL_REG & (uint32) ~CY_SYS_CLK_OSCINTF
 333:.\Generated_Source\PSoC4/CyLib.c ****                                           CY_SYS_CLK_OSCINTF_CTL_PORT_SEL_USB;
 334:.\Generated_Source\PSoC4/CyLib.c ****         #endif /* (CY_IP_IMO_TRIMMABLE_BY_WCO && CY_IP_IMO_TRIMMABLE_BY_USB) */
 335:.\Generated_Source\PSoC4/CyLib.c **** 
 336:.\Generated_Source\PSoC4/CyLib.c ****         #if(CY_IP_SRSSV2)
 337:.\Generated_Source\PSoC4/CyLib.c ****             /* Save CY_SYS_CLK_IMO_TRIM4_REG and set IMO gain for USB lock */
 338:.\Generated_Source\PSoC4/CyLib.c ****             CySysClkImoTrim4 = CY_SYS_CLK_IMO_TRIM4_REG & (uint32) ~CY_SYS_CLK_IMO_TRIM4_GAIN_MASK;
 339:.\Generated_Source\PSoC4/CyLib.c ****             CY_SYS_CLK_IMO_TRIM4_REG = (CY_SYS_CLK_IMO_TRIM4_REG & (uint32) ~CY_SYS_CLK_IMO_TRIM4_G
 340:.\Generated_Source\PSoC4/CyLib.c ****                                         CY_SYS_CLK_IMO_TRIM4_USB_GAIN;
 341:.\Generated_Source\PSoC4/CyLib.c ****         #endif  /* (CY_IP_SRSSV2) */
 342:.\Generated_Source\PSoC4/CyLib.c **** 
 343:.\Generated_Source\PSoC4/CyLib.c ****         CY_SYS_CLK_USBDEVv2_CR1_REG |= CY_SYS_CLK_USBDEVv2_CR1_ENABLE_LOCK;
 344:.\Generated_Source\PSoC4/CyLib.c ****     }
 345:.\Generated_Source\PSoC4/CyLib.c **** 
 346:.\Generated_Source\PSoC4/CyLib.c **** 
 347:.\Generated_Source\PSoC4/CyLib.c ****     /*******************************************************************************
 348:.\Generated_Source\PSoC4/CyLib.c ****     * Function Name: CySysClkImoDisableUsbLock
 349:.\Generated_Source\PSoC4/CyLib.c ****     ****************************************************************************//**
 350:.\Generated_Source\PSoC4/CyLib.c ****     *
 351:.\Generated_Source\PSoC4/CyLib.c ****     * Disables the IMO to USB lock feature.
 352:.\Generated_Source\PSoC4/CyLib.c ****     *
 353:.\Generated_Source\PSoC4/CyLib.c ****     * This function is called from CySysClkImoStop() function if USB lock selected
 354:.\Generated_Source\PSoC4/CyLib.c ****     * in the Design Wide Resources tab.
 355:.\Generated_Source\PSoC4/CyLib.c ****     *
 356:.\Generated_Source\PSoC4/CyLib.c ****     * This is applicable for PSoC 4200L family of devices only. For PSoC 4200L
 357:.\Generated_Source\PSoC4/CyLib.c ****     * devices, the IMO can lock to either WCO or USB, but not both.
 358:.\Generated_Source\PSoC4/CyLib.c ****     *
 359:.\Generated_Source\PSoC4/CyLib.c ****     *******************************************************************************/
 360:.\Generated_Source\PSoC4/CyLib.c ****     void CySysClkImoDisableUsbLock(void)
 361:.\Generated_Source\PSoC4/CyLib.c ****     {
 362:.\Generated_Source\PSoC4/CyLib.c ****         CY_SYS_CLK_USBDEVv2_CR1_REG &= (uint32) ~CY_SYS_CLK_USBDEVv2_CR1_ENABLE_LOCK;
 363:.\Generated_Source\PSoC4/CyLib.c **** 
 364:.\Generated_Source\PSoC4/CyLib.c ****         #if(CY_IP_SRSSV2)
 365:.\Generated_Source\PSoC4/CyLib.c ****             /* Restore CY_SYS_CLK_IMO_TRIM4_REG */
 366:.\Generated_Source\PSoC4/CyLib.c ****             CY_SYS_CLK_IMO_TRIM4_REG = (CY_SYS_CLK_IMO_TRIM4_REG & (uint32) ~CY_SYS_CLK_IMO_TRIM4_G
 367:.\Generated_Source\PSoC4/CyLib.c ****                                     CySysClkImoTrim4;
 368:.\Generated_Source\PSoC4/CyLib.c ****         #endif  /* (CY_IP_SRSSV2) */
 369:.\Generated_Source\PSoC4/CyLib.c ****     }
 370:.\Generated_Source\PSoC4/CyLib.c **** 
 371:.\Generated_Source\PSoC4/CyLib.c **** 
 372:.\Generated_Source\PSoC4/CyLib.c ****     /*******************************************************************************
 373:.\Generated_Source\PSoC4/CyLib.c ****     * Function Name: CySysClkImoGetUsbLock
 374:.\Generated_Source\PSoC4/CyLib.c ****     ****************************************************************************//**
 375:.\Generated_Source\PSoC4/CyLib.c ****     *
 376:.\Generated_Source\PSoC4/CyLib.c ****     * Reports the IMO to USB lock enable state.
 377:.\Generated_Source\PSoC4/CyLib.c ****     *
 378:.\Generated_Source\PSoC4/CyLib.c ****     * This is applicable for PSoC 4200L family of devices only. For PSoC 4200L
ARM GAS  C:\Users\SPITFI~1\AppData\Local\Temp\ccTvxQXd.s 			page 9


 379:.\Generated_Source\PSoC4/CyLib.c ****     * devices, the IMO can lock to either WCO or USB, but not both.
 380:.\Generated_Source\PSoC4/CyLib.c ****     *
 381:.\Generated_Source\PSoC4/CyLib.c ****     * \return 1 if IMO to USB lock is enabled.
 382:.\Generated_Source\PSoC4/CyLib.c ****     * \return 0 if IMO to USB lock is disabled.
 383:.\Generated_Source\PSoC4/CyLib.c ****     *
 384:.\Generated_Source\PSoC4/CyLib.c ****     *******************************************************************************/
 385:.\Generated_Source\PSoC4/CyLib.c ****     uint32 CySysClkImoGetUsbLock(void)
 386:.\Generated_Source\PSoC4/CyLib.c ****     {
 387:.\Generated_Source\PSoC4/CyLib.c ****         return ((0u != (CY_SYS_CLK_USBDEVv2_CR1_REG & CY_SYS_CLK_USBDEVv2_CR1_ENABLE_LOCK)) ?
 388:.\Generated_Source\PSoC4/CyLib.c ****                 (uint32) 1u :
 389:.\Generated_Source\PSoC4/CyLib.c ****                 (uint32) 0u);
 390:.\Generated_Source\PSoC4/CyLib.c ****     }
 391:.\Generated_Source\PSoC4/CyLib.c **** #endif  /* (CY_IP_IMO_TRIMMABLE_BY_USB) */
 392:.\Generated_Source\PSoC4/CyLib.c **** 
 393:.\Generated_Source\PSoC4/CyLib.c **** 
 394:.\Generated_Source\PSoC4/CyLib.c **** 
 395:.\Generated_Source\PSoC4/CyLib.c **** /*******************************************************************************
 396:.\Generated_Source\PSoC4/CyLib.c **** * Function Name: CySysClkWriteHfclkDirect
 397:.\Generated_Source\PSoC4/CyLib.c **** ****************************************************************************//**
 398:.\Generated_Source\PSoC4/CyLib.c **** *
 399:.\Generated_Source\PSoC4/CyLib.c **** * Selects the direct source for the HFCLK.
 400:.\Generated_Source\PSoC4/CyLib.c **** *
 401:.\Generated_Source\PSoC4/CyLib.c **** * The new source must be running and stable before calling this function.
 402:.\Generated_Source\PSoC4/CyLib.c **** *
 403:.\Generated_Source\PSoC4/CyLib.c **** * PSoC 4000:
 404:.\Generated_Source\PSoC4/CyLib.c **** * The SYSCLK has a maximum speed of 16 MHz, so HFCLK and SYSCLK dividers should
 405:.\Generated_Source\PSoC4/CyLib.c **** * be selected in a way to not to exceed 16 MHz for the System clock.
 406:.\Generated_Source\PSoC4/CyLib.c **** *
 407:.\Generated_Source\PSoC4/CyLib.c **** * If the SYSCLK clock frequency increases during device operation, call
 408:.\Generated_Source\PSoC4/CyLib.c **** * CySysFlashSetWaitCycles() with the appropriate parameter to adjust the number
 409:.\Generated_Source\PSoC4/CyLib.c **** * of clock cycles the cache will wait before sampling data comes back from
 410:.\Generated_Source\PSoC4/CyLib.c **** * Flash. If the SYSCLK clock frequency decreases, you can call
 411:.\Generated_Source\PSoC4/CyLib.c **** * CySysFlashSetWaitCycles() to improve the CPU performance. See
 412:.\Generated_Source\PSoC4/CyLib.c **** * CySysFlashSetWaitCycles() description for more information.
 413:.\Generated_Source\PSoC4/CyLib.c **** *
 414:.\Generated_Source\PSoC4/CyLib.c **** * Do not select PLL as the source for HFCLK if PLL output frequency exceeds
 415:.\Generated_Source\PSoC4/CyLib.c **** * maximum permissible value for HFCLK.
 416:.\Generated_Source\PSoC4/CyLib.c **** *
 417:.\Generated_Source\PSoC4/CyLib.c **** * \param clkSelect One of the available HFCLK direct sources.
 418:.\Generated_Source\PSoC4/CyLib.c **** * CY_SYS_CLK_HFCLK_IMO     IMO.
 419:.\Generated_Source\PSoC4/CyLib.c **** * CY_SYS_CLK_HFCLK_EXTCLK  External clock pin.
 420:.\Generated_Source\PSoC4/CyLib.c **** * CY_SYS_CLK_HFCLK_ECO     External crystal oscillator. Applicable for
 421:.\Generated_Source\PSoC4/CyLib.c **** *                          PSoC 4100 BLE / PSoC 4200 BLE / PSoC 4200L.
 422:.\Generated_Source\PSoC4/CyLib.c **** * CY_SYS_CLK_HFCLK_PLL0    PLL#0. Applicable for PSoC 4200L.
 423:.\Generated_Source\PSoC4/CyLib.c **** * CY_SYS_CLK_HFCLK_PLL1    PLL#1. Applicable for PSoC 4200L.
 424:.\Generated_Source\PSoC4/CyLib.c **** *
 425:.\Generated_Source\PSoC4/CyLib.c **** *******************************************************************************/
 426:.\Generated_Source\PSoC4/CyLib.c **** void CySysClkWriteHfclkDirect(uint32 clkSelect)
 427:.\Generated_Source\PSoC4/CyLib.c **** {
  79              		.loc 1 427 0
  80              		.cfi_startproc
  81              	.LVL0:
  82 0000 10B5     		push	{r4, lr}
  83              		.cfi_def_cfa_offset 8
  84              		.cfi_offset 4, -8
  85              		.cfi_offset 14, -4
  86 0002 041C     		mov	r4, r0
ARM GAS  C:\Users\SPITFI~1\AppData\Local\Temp\ccTvxQXd.s 			page 10


 428:.\Generated_Source\PSoC4/CyLib.c ****     uint8  interruptState;
 429:.\Generated_Source\PSoC4/CyLib.c ****     uint32 tmpReg;
 430:.\Generated_Source\PSoC4/CyLib.c **** 
 431:.\Generated_Source\PSoC4/CyLib.c ****     interruptState = CyEnterCriticalSection();
  87              		.loc 1 431 0
  88 0004 FFF7FEFF 		bl	CyEnterCriticalSection
  89              	.LVL1:
 432:.\Generated_Source\PSoC4/CyLib.c **** 
 433:.\Generated_Source\PSoC4/CyLib.c **** 
 434:.\Generated_Source\PSoC4/CyLib.c ****     tmpReg = CY_SYS_CLK_SELECT_REG & ~(CY_SYS_CLK_SELECT_DIRECT_SEL_MASK |
  90              		.loc 1 434 0
  91 0008 0449     		ldr	r1, .L8
  92 000a 0A68     		ldr	r2, [r1]
  93 000c 0323     		mov	r3, #3
  94 000e 9A43     		bic	r2, r3
  95              	.LVL2:
 435:.\Generated_Source\PSoC4/CyLib.c ****                                        CY_SYS_CLK_SELECT_HFCLK_SEL_MASK);
 436:.\Generated_Source\PSoC4/CyLib.c **** 
 437:.\Generated_Source\PSoC4/CyLib.c **** #if (CY_IP_SRSSV2 && CY_IP_PLL)
 438:.\Generated_Source\PSoC4/CyLib.c ****     if ((CY_SYS_CLK_HFCLK_PLL0 == clkSelect) || (CY_SYS_CLK_HFCLK_PLL1 == clkSelect))
 439:.\Generated_Source\PSoC4/CyLib.c ****     {
 440:.\Generated_Source\PSoC4/CyLib.c ****         tmpReg |= (clkSelect & CY_SYS_CLK_SELECT_HFCLK_SEL_MASK);
 441:.\Generated_Source\PSoC4/CyLib.c ****     }
 442:.\Generated_Source\PSoC4/CyLib.c ****     else
 443:.\Generated_Source\PSoC4/CyLib.c **** #endif /* (CY_IP_SRSSV2 && CY_IP_PLL) */
 444:.\Generated_Source\PSoC4/CyLib.c ****     {
 445:.\Generated_Source\PSoC4/CyLib.c ****         tmpReg |= (clkSelect & CY_SYS_CLK_SELECT_DIRECT_SEL_MASK);
  96              		.loc 1 445 0
  97 0010 2340     		and	r3, r4
  98 0012 1343     		orr	r3, r2
  99              	.LVL3:
 446:.\Generated_Source\PSoC4/CyLib.c ****     }
 447:.\Generated_Source\PSoC4/CyLib.c **** 
 448:.\Generated_Source\PSoC4/CyLib.c ****     CY_SYS_CLK_SELECT_REG = tmpReg;
 100              		.loc 1 448 0
 101 0014 0B60     		str	r3, [r1]
 449:.\Generated_Source\PSoC4/CyLib.c **** 
 450:.\Generated_Source\PSoC4/CyLib.c ****     CyExitCriticalSection(interruptState);
 102              		.loc 1 450 0
 103 0016 FFF7FEFF 		bl	CyExitCriticalSection
 104              	.LVL4:
 451:.\Generated_Source\PSoC4/CyLib.c **** }
 105              		.loc 1 451 0
 106              		@ sp needed
 107              	.LVL5:
 108 001a 10BD     		pop	{r4, pc}
 109              	.L9:
 110              		.align	2
 111              	.L8:
 112 001c 28000340 		.word	1073938472
 113              		.cfi_endproc
 114              	.LFE2:
 115              		.size	CySysClkWriteHfclkDirect, .-CySysClkWriteHfclkDirect
 116              		.section	.text.CySysClkGetSysclkSource,"ax",%progbits
 117              		.align	2
 118              		.global	CySysClkGetSysclkSource
 119              		.code	16
ARM GAS  C:\Users\SPITFI~1\AppData\Local\Temp\ccTvxQXd.s 			page 11


 120              		.thumb_func
 121              		.type	CySysClkGetSysclkSource, %function
 122              	CySysClkGetSysclkSource:
 123              	.LFB3:
 452:.\Generated_Source\PSoC4/CyLib.c **** 
 453:.\Generated_Source\PSoC4/CyLib.c **** 
 454:.\Generated_Source\PSoC4/CyLib.c **** /*******************************************************************************
 455:.\Generated_Source\PSoC4/CyLib.c **** * Function Name: CySysClkGetSysclkSource
 456:.\Generated_Source\PSoC4/CyLib.c **** ****************************************************************************//**
 457:.\Generated_Source\PSoC4/CyLib.c **** *
 458:.\Generated_Source\PSoC4/CyLib.c **** * Returns the source of the System clock.
 459:.\Generated_Source\PSoC4/CyLib.c **** *
 460:.\Generated_Source\PSoC4/CyLib.c **** * \return The same as \ref CySysClkWriteHfclkDirect() function parameters.
 461:.\Generated_Source\PSoC4/CyLib.c **** *
 462:.\Generated_Source\PSoC4/CyLib.c **** *******************************************************************************/
 463:.\Generated_Source\PSoC4/CyLib.c **** uint32 CySysClkGetSysclkSource(void)
 464:.\Generated_Source\PSoC4/CyLib.c **** {
 124              		.loc 1 464 0
 125              		.cfi_startproc
 126 0000 10B5     		push	{r4, lr}
 127              		.cfi_def_cfa_offset 8
 128              		.cfi_offset 4, -8
 129              		.cfi_offset 14, -4
 465:.\Generated_Source\PSoC4/CyLib.c ****     uint8  interruptState;
 466:.\Generated_Source\PSoC4/CyLib.c ****     uint32 sysclkSource;
 467:.\Generated_Source\PSoC4/CyLib.c **** 
 468:.\Generated_Source\PSoC4/CyLib.c ****     interruptState = CyEnterCriticalSection();
 130              		.loc 1 468 0
 131 0002 FFF7FEFF 		bl	CyEnterCriticalSection
 132              	.LVL6:
 469:.\Generated_Source\PSoC4/CyLib.c **** 
 470:.\Generated_Source\PSoC4/CyLib.c **** #if (CY_IP_SRSSV2 && CY_IP_PLL)
 471:.\Generated_Source\PSoC4/CyLib.c ****     if ((CY_SYS_CLK_SELECT_REG & CY_SYS_CLK_SELECT_HFCLK_SEL_MASK) != 0u)
 472:.\Generated_Source\PSoC4/CyLib.c ****     {
 473:.\Generated_Source\PSoC4/CyLib.c ****         sysclkSource = (CY_SYS_CLK_SELECT_REG & CY_SYS_CLK_SELECT_HFCLK_SEL_MASK);
 474:.\Generated_Source\PSoC4/CyLib.c ****     }
 475:.\Generated_Source\PSoC4/CyLib.c ****     else
 476:.\Generated_Source\PSoC4/CyLib.c **** #endif /* (CY_IP_SRSSV2 && CY_IP_PLL) */
 477:.\Generated_Source\PSoC4/CyLib.c ****     {
 478:.\Generated_Source\PSoC4/CyLib.c ****         sysclkSource = (CY_SYS_CLK_SELECT_REG & CY_SYS_CLK_SELECT_DIRECT_SEL_MASK);
 133              		.loc 1 478 0
 134 0006 044B     		ldr	r3, .L11
 135 0008 1B68     		ldr	r3, [r3]
 136 000a 0324     		mov	r4, #3
 137 000c 1C40     		and	r4, r3
 138              	.LVL7:
 479:.\Generated_Source\PSoC4/CyLib.c ****     }
 480:.\Generated_Source\PSoC4/CyLib.c **** 
 481:.\Generated_Source\PSoC4/CyLib.c ****     CyExitCriticalSection(interruptState);
 139              		.loc 1 481 0
 140 000e FFF7FEFF 		bl	CyExitCriticalSection
 141              	.LVL8:
 482:.\Generated_Source\PSoC4/CyLib.c **** 
 483:.\Generated_Source\PSoC4/CyLib.c ****     return (sysclkSource);
 484:.\Generated_Source\PSoC4/CyLib.c **** }
 142              		.loc 1 484 0
 143 0012 201C     		mov	r0, r4
ARM GAS  C:\Users\SPITFI~1\AppData\Local\Temp\ccTvxQXd.s 			page 12


 144              		@ sp needed
 145              	.LVL9:
 146 0014 10BD     		pop	{r4, pc}
 147              	.L12:
 148 0016 C046     		.align	2
 149              	.L11:
 150 0018 28000340 		.word	1073938472
 151              		.cfi_endproc
 152              	.LFE3:
 153              		.size	CySysClkGetSysclkSource, .-CySysClkGetSysclkSource
 154              		.section	.text.CySysClkWriteSysclkDiv,"ax",%progbits
 155              		.align	2
 156              		.global	CySysClkWriteSysclkDiv
 157              		.code	16
 158              		.thumb_func
 159              		.type	CySysClkWriteSysclkDiv, %function
 160              	CySysClkWriteSysclkDiv:
 161              	.LFB4:
 485:.\Generated_Source\PSoC4/CyLib.c **** 
 486:.\Generated_Source\PSoC4/CyLib.c **** 
 487:.\Generated_Source\PSoC4/CyLib.c **** /*******************************************************************************
 488:.\Generated_Source\PSoC4/CyLib.c **** * Function Name: CySysClkWriteSysclkDiv
 489:.\Generated_Source\PSoC4/CyLib.c **** ****************************************************************************//**
 490:.\Generated_Source\PSoC4/CyLib.c **** *
 491:.\Generated_Source\PSoC4/CyLib.c **** * Selects the prescaler divide amount for SYSCLK from HFCLK.
 492:.\Generated_Source\PSoC4/CyLib.c **** *
 493:.\Generated_Source\PSoC4/CyLib.c **** * PSoC 4000: The SYSCLK has the speed of 16 MHz, so HFCLK and SYSCLK dividers
 494:.\Generated_Source\PSoC4/CyLib.c **** * should be selected in a way, not to exceed 16 MHz for SYSCLK.
 495:.\Generated_Source\PSoC4/CyLib.c **** *
 496:.\Generated_Source\PSoC4/CyLib.c **** * PSoC 4100 \ PSoC 4100 BLE \ PSoC 4100M: The SYSCLK has the speed of 24 MHz,
 497:.\Generated_Source\PSoC4/CyLib.c **** * so HFCLK and SYSCLK dividers should be selected in a way, not to exceed 24 MHz
 498:.\Generated_Source\PSoC4/CyLib.c **** * for SYSCLK.
 499:.\Generated_Source\PSoC4/CyLib.c **** *
 500:.\Generated_Source\PSoC4/CyLib.c **** * If the SYSCLK clock frequency increases during the device operation, call
 501:.\Generated_Source\PSoC4/CyLib.c **** * \ref CySysFlashSetWaitCycles() with the appropriate parameter to adjust the
 502:.\Generated_Source\PSoC4/CyLib.c **** * number of clock cycles the cache will wait before sampling data comes back
 503:.\Generated_Source\PSoC4/CyLib.c **** * from Flash. If the SYSCLK clock frequency decreases, you can call
 504:.\Generated_Source\PSoC4/CyLib.c **** * \ref CySysFlashSetWaitCycles() to improve the CPU performance. See
 505:.\Generated_Source\PSoC4/CyLib.c **** * \ref CySysFlashSetWaitCycles() description for more information.
 506:.\Generated_Source\PSoC4/CyLib.c **** *
 507:.\Generated_Source\PSoC4/CyLib.c **** * \param divider Power of 2 prescaler selection
 508:.\Generated_Source\PSoC4/CyLib.c **** *  CY_SYS_CLK_SYSCLK_DIV1        SYSCLK = HFCLK / 1
 509:.\Generated_Source\PSoC4/CyLib.c **** *  CY_SYS_CLK_SYSCLK_DIV2        SYSCLK = HFCLK / 2
 510:.\Generated_Source\PSoC4/CyLib.c **** *  CY_SYS_CLK_SYSCLK_DIV4        SYSCLK = HFCLK / 4
 511:.\Generated_Source\PSoC4/CyLib.c **** *  CY_SYS_CLK_SYSCLK_DIV8        SYSCLK = HFCLK / 8
 512:.\Generated_Source\PSoC4/CyLib.c **** *  CY_SYS_CLK_SYSCLK_DIV16       SYSCLK = HFCLK / 16  (N/A for 4000 Family)
 513:.\Generated_Source\PSoC4/CyLib.c **** *  CY_SYS_CLK_SYSCLK_DIV32       SYSCLK = HFCLK / 32  (N/A for 4000 Family)
 514:.\Generated_Source\PSoC4/CyLib.c **** *  CY_SYS_CLK_SYSCLK_DIV64       SYSCLK = HFCLK / 64  (N/A for 4000 Family)
 515:.\Generated_Source\PSoC4/CyLib.c **** *  CY_SYS_CLK_SYSCLK_DIV128      SYSCLK = HFCLK / 128 (N/A for 4000 Family)
 516:.\Generated_Source\PSoC4/CyLib.c **** *
 517:.\Generated_Source\PSoC4/CyLib.c **** *******************************************************************************/
 518:.\Generated_Source\PSoC4/CyLib.c **** void CySysClkWriteSysclkDiv(uint32 divider)
 519:.\Generated_Source\PSoC4/CyLib.c **** {
 162              		.loc 1 519 0
 163              		.cfi_startproc
 164              	.LVL10:
 165 0000 10B5     		push	{r4, lr}
ARM GAS  C:\Users\SPITFI~1\AppData\Local\Temp\ccTvxQXd.s 			page 13


 166              		.cfi_def_cfa_offset 8
 167              		.cfi_offset 4, -8
 168              		.cfi_offset 14, -4
 169 0002 041C     		mov	r4, r0
 520:.\Generated_Source\PSoC4/CyLib.c ****     uint8  interruptState;
 521:.\Generated_Source\PSoC4/CyLib.c **** 
 522:.\Generated_Source\PSoC4/CyLib.c ****     interruptState = CyEnterCriticalSection();
 170              		.loc 1 522 0
 171 0004 FFF7FEFF 		bl	CyEnterCriticalSection
 172              	.LVL11:
 523:.\Generated_Source\PSoC4/CyLib.c **** 
 524:.\Generated_Source\PSoC4/CyLib.c ****     CY_SYS_CLK_SELECT_REG = ((uint32)(((uint32)divider & CY_SYS_CLK_SELECT_SYSCLK_DIV_MASK) <<
 173              		.loc 1 524 0
 174 0008 A401     		lsl	r4, r4, #6
 175              	.LVL12:
 176 000a FF23     		mov	r3, #255
 177 000c 2340     		and	r3, r4
 525:.\Generated_Source\PSoC4/CyLib.c ****                                     CY_SYS_CLK_SELECT_SYSCLK_DIV_SHIFT)) |
 526:.\Generated_Source\PSoC4/CyLib.c ****                             (CY_SYS_CLK_SELECT_REG & ((uint32)(~(uint32)(CY_SYS_CLK_SELECT_SYSCLK_D
 178              		.loc 1 526 0
 179 000e 0449     		ldr	r1, .L14
 180 0010 0A68     		ldr	r2, [r1]
 181 0012 C024     		mov	r4, #192
 182 0014 A243     		bic	r2, r4
 525:.\Generated_Source\PSoC4/CyLib.c ****                                     CY_SYS_CLK_SELECT_SYSCLK_DIV_SHIFT)) |
 183              		.loc 1 525 0
 184 0016 1343     		orr	r3, r2
 524:.\Generated_Source\PSoC4/CyLib.c ****                                     CY_SYS_CLK_SELECT_SYSCLK_DIV_SHIFT)) |
 185              		.loc 1 524 0
 186 0018 0B60     		str	r3, [r1]
 527:.\Generated_Source\PSoC4/CyLib.c ****                                     CY_SYS_CLK_SELECT_SYSCLK_DIV_SHIFT))));
 528:.\Generated_Source\PSoC4/CyLib.c **** 
 529:.\Generated_Source\PSoC4/CyLib.c ****     CyExitCriticalSection(interruptState);
 187              		.loc 1 529 0
 188 001a FFF7FEFF 		bl	CyExitCriticalSection
 189              	.LVL13:
 530:.\Generated_Source\PSoC4/CyLib.c **** }
 190              		.loc 1 530 0
 191              		@ sp needed
 192 001e 10BD     		pop	{r4, pc}
 193              	.L15:
 194              		.align	2
 195              	.L14:
 196 0020 28000340 		.word	1073938472
 197              		.cfi_endproc
 198              	.LFE4:
 199              		.size	CySysClkWriteSysclkDiv, .-CySysClkWriteSysclkDiv
 200              		.section	.text.CySysClkWriteHfclkDiv,"ax",%progbits
 201              		.align	2
 202              		.global	CySysClkWriteHfclkDiv
 203              		.code	16
 204              		.thumb_func
 205              		.type	CySysClkWriteHfclkDiv, %function
 206              	CySysClkWriteHfclkDiv:
 207              	.LFB6:
 531:.\Generated_Source\PSoC4/CyLib.c **** 
 532:.\Generated_Source\PSoC4/CyLib.c **** 
ARM GAS  C:\Users\SPITFI~1\AppData\Local\Temp\ccTvxQXd.s 			page 14


 533:.\Generated_Source\PSoC4/CyLib.c **** /*******************************************************************************
 534:.\Generated_Source\PSoC4/CyLib.c **** * Function Name: CySysClkWriteImoFreq
 535:.\Generated_Source\PSoC4/CyLib.c **** ****************************************************************************//**
 536:.\Generated_Source\PSoC4/CyLib.c **** *
 537:.\Generated_Source\PSoC4/CyLib.c **** * Sets the frequency of the IMO.
 538:.\Generated_Source\PSoC4/CyLib.c **** *
 539:.\Generated_Source\PSoC4/CyLib.c **** * PSoC 4000: The SYSCLK has the speed of 16 MHz, so HFCLK and SYSCLK dividers
 540:.\Generated_Source\PSoC4/CyLib.c **** * should be selected in a way, not to exceed 16 MHz for SYSCLK.
 541:.\Generated_Source\PSoC4/CyLib.c **** *
 542:.\Generated_Source\PSoC4/CyLib.c **** * PSoC 4100 \ PSoC 4100 BLE \ PSoC 4100M: The SYSCLK has the speed of 24 MHz,
 543:.\Generated_Source\PSoC4/CyLib.c **** * so HFCLK and SYSCLK dividers should be selected in a way, not to exceed 24 MHz
 544:.\Generated_Source\PSoC4/CyLib.c **** * for SYSCLK.
 545:.\Generated_Source\PSoC4/CyLib.c **** *
 546:.\Generated_Source\PSoC4/CyLib.c **** * For PSoC 4200M and PSoC 4200L device families, if WCO lock feature is enabled
 547:.\Generated_Source\PSoC4/CyLib.c **** * then this API will disable the lock, write the new IMO frequency and then
 548:.\Generated_Source\PSoC4/CyLib.c **** * re-enable the lock.
 549:.\Generated_Source\PSoC4/CyLib.c **** *
 550:.\Generated_Source\PSoC4/CyLib.c **** * For PSoC 4200L device families, this function enables the USB lock when 24 or
 551:.\Generated_Source\PSoC4/CyLib.c **** * 48 MHz passed as a parameter if the USB lock option is enabled in Design Wide
 552:.\Generated_Source\PSoC4/CyLib.c **** * Resources tab or CySysClkImoEnableUsbLock() was called before. Note the USB
 553:.\Generated_Source\PSoC4/CyLib.c **** * lock is disabled during IMO frequency change.
 554:.\Generated_Source\PSoC4/CyLib.c **** *
 555:.\Generated_Source\PSoC4/CyLib.c **** * The CPU is halted if new frequency is invalid and project is compiled
 556:.\Generated_Source\PSoC4/CyLib.c **** * in debug mode.
 557:.\Generated_Source\PSoC4/CyLib.c **** *
 558:.\Generated_Source\PSoC4/CyLib.c **** * If the SYSCLK clock frequency increases during the device operation, call
 559:.\Generated_Source\PSoC4/CyLib.c **** * \ref CySysFlashSetWaitCycles() with the appropriate parameter to adjust the
 560:.\Generated_Source\PSoC4/CyLib.c **** * number of clock cycles the cache will wait before sampling data comes back
 561:.\Generated_Source\PSoC4/CyLib.c **** * from Flash. If the SYSCLK clock frequency decreases, you can call
 562:.\Generated_Source\PSoC4/CyLib.c **** * \ref CySysFlashSetWaitCycles() to improve the CPU performance. See
 563:.\Generated_Source\PSoC4/CyLib.c **** * \ref CySysFlashSetWaitCycles() description for more information.
 564:.\Generated_Source\PSoC4/CyLib.c **** *
 565:.\Generated_Source\PSoC4/CyLib.c **** * PSoC 4000: The System Clock (SYSCLK) has maximum speed of 16 MHz, so HFCLK
 566:.\Generated_Source\PSoC4/CyLib.c **** * and SYSCLK dividers should be selected in a way, to not to exceed 16 MHz for
 567:.\Generated_Source\PSoC4/CyLib.c **** * the System clock.
 568:.\Generated_Source\PSoC4/CyLib.c **** *
 569:.\Generated_Source\PSoC4/CyLib.c **** * \param freq All PSoC 4 families excluding the following: Valid range [3-48]
 570:.\Generated_Source\PSoC4/CyLib.c **** * with step size equals 1. PSoC 4000: Valid values are 24, 32, and 48.
 571:.\Generated_Source\PSoC4/CyLib.c **** * PSoC 4000S / PSoC 4100S / PSoC 4400: Valid range [24-48] with step size equals
 572:.\Generated_Source\PSoC4/CyLib.c **** * 4.
 573:.\Generated_Source\PSoC4/CyLib.c **** *
 574:.\Generated_Source\PSoC4/CyLib.c **** *******************************************************************************/
 575:.\Generated_Source\PSoC4/CyLib.c **** #if(CY_IP_SRSSV2)
 576:.\Generated_Source\PSoC4/CyLib.c ****     void CySysClkWriteImoFreq(uint32 freq)
 577:.\Generated_Source\PSoC4/CyLib.c ****     {
 578:.\Generated_Source\PSoC4/CyLib.c ****         #if (CY_IP_FMLT)
 579:.\Generated_Source\PSoC4/CyLib.c ****             volatile uint32   parameters[2u];
 580:.\Generated_Source\PSoC4/CyLib.c ****             volatile uint32   regValues[4u];
 581:.\Generated_Source\PSoC4/CyLib.c ****         #else
 582:.\Generated_Source\PSoC4/CyLib.c ****             uint8  bgTrim4;
 583:.\Generated_Source\PSoC4/CyLib.c ****             uint8  bgTrim5;
 584:.\Generated_Source\PSoC4/CyLib.c ****             uint8  newImoTrim2Value;
 585:.\Generated_Source\PSoC4/CyLib.c ****             uint8  currentImoTrim2Value;
 586:.\Generated_Source\PSoC4/CyLib.c ****             uint8  imoTrim1Value;
 587:.\Generated_Source\PSoC4/CyLib.c ****         #endif /* (CY_IP_FM) */
 588:.\Generated_Source\PSoC4/CyLib.c **** 
 589:.\Generated_Source\PSoC4/CyLib.c ****         #if (CY_IP_IMO_TRIMMABLE_BY_WCO)
ARM GAS  C:\Users\SPITFI~1\AppData\Local\Temp\ccTvxQXd.s 			page 15


 590:.\Generated_Source\PSoC4/CyLib.c ****             uint32 wcoLock = 0u;
 591:.\Generated_Source\PSoC4/CyLib.c ****         #endif  /* (CY_IP_IMO_TRIMMABLE_BY_WCO) */
 592:.\Generated_Source\PSoC4/CyLib.c **** 
 593:.\Generated_Source\PSoC4/CyLib.c ****         #if (CY_IP_IMO_TRIMMABLE_BY_USB)
 594:.\Generated_Source\PSoC4/CyLib.c ****             uint32 usbLock = 0u;
 595:.\Generated_Source\PSoC4/CyLib.c ****         #endif  /* (CY_IP_IMO_TRIMMABLE_BY_USB) */
 596:.\Generated_Source\PSoC4/CyLib.c **** 
 597:.\Generated_Source\PSoC4/CyLib.c ****         uint8  interruptState;
 598:.\Generated_Source\PSoC4/CyLib.c **** 
 599:.\Generated_Source\PSoC4/CyLib.c **** 
 600:.\Generated_Source\PSoC4/CyLib.c ****         interruptState = CyEnterCriticalSection();
 601:.\Generated_Source\PSoC4/CyLib.c **** 
 602:.\Generated_Source\PSoC4/CyLib.c ****         #if (CY_IP_IMO_TRIMMABLE_BY_WCO)
 603:.\Generated_Source\PSoC4/CyLib.c ****             if(0u != CySysClkImoGetWcoLock())
 604:.\Generated_Source\PSoC4/CyLib.c ****             {
 605:.\Generated_Source\PSoC4/CyLib.c ****                 wcoLock = 1u;
 606:.\Generated_Source\PSoC4/CyLib.c ****                 CySysClkImoDisableWcoLock();
 607:.\Generated_Source\PSoC4/CyLib.c ****             }
 608:.\Generated_Source\PSoC4/CyLib.c ****         #endif  /* (CY_IP_IMO_TRIMMABLE_BY_WCO) */
 609:.\Generated_Source\PSoC4/CyLib.c **** 
 610:.\Generated_Source\PSoC4/CyLib.c **** 
 611:.\Generated_Source\PSoC4/CyLib.c ****         #if (CY_IP_IMO_TRIMMABLE_BY_USB)
 612:.\Generated_Source\PSoC4/CyLib.c **** 
 613:.\Generated_Source\PSoC4/CyLib.c ****             #if (CYDEV_IMO_TRIMMED_BY_USB == 0u)
 614:.\Generated_Source\PSoC4/CyLib.c ****                 if(0u != CySysClkImoGetUsbLock())
 615:.\Generated_Source\PSoC4/CyLib.c ****                 {
 616:.\Generated_Source\PSoC4/CyLib.c ****             #endif  /* (CYDEV_IMO_TRIMMED_BY_USB == 0u) */
 617:.\Generated_Source\PSoC4/CyLib.c **** 
 618:.\Generated_Source\PSoC4/CyLib.c ****                 if ((24u == freq) || (48u == freq))
 619:.\Generated_Source\PSoC4/CyLib.c ****                 {
 620:.\Generated_Source\PSoC4/CyLib.c ****                     usbLock = 1u;
 621:.\Generated_Source\PSoC4/CyLib.c ****                     CySysClkImoDisableUsbLock();
 622:.\Generated_Source\PSoC4/CyLib.c ****                 }
 623:.\Generated_Source\PSoC4/CyLib.c **** 
 624:.\Generated_Source\PSoC4/CyLib.c ****             #if (CYDEV_IMO_TRIMMED_BY_USB == 0u)
 625:.\Generated_Source\PSoC4/CyLib.c ****                 }
 626:.\Generated_Source\PSoC4/CyLib.c ****             #endif  /* (CYDEV_IMO_TRIMMED_BY_USB == 0u) */
 627:.\Generated_Source\PSoC4/CyLib.c **** 
 628:.\Generated_Source\PSoC4/CyLib.c ****         #endif  /* (CYDEV_IMO_TRIMMED_BY_USB == 0u) */
 629:.\Generated_Source\PSoC4/CyLib.c **** 
 630:.\Generated_Source\PSoC4/CyLib.c **** 
 631:.\Generated_Source\PSoC4/CyLib.c ****         #if (CY_IP_FMLT)
 632:.\Generated_Source\PSoC4/CyLib.c **** 
 633:.\Generated_Source\PSoC4/CyLib.c ****             /* FM-Lite Clock Restore */
 634:.\Generated_Source\PSoC4/CyLib.c ****             regValues[0u] = CY_SYS_CLK_IMO_CONFIG_REG;
 635:.\Generated_Source\PSoC4/CyLib.c ****             regValues[1u] = CY_SYS_CLK_SELECT_REG;
 636:.\Generated_Source\PSoC4/CyLib.c ****             regValues[2u] = cyImoFreqMhz2Reg[freq - CY_SYS_CLK_IMO_FREQ_TABLE_OFFSET];
 637:.\Generated_Source\PSoC4/CyLib.c ****             regValues[3u] = CY_FLASH_CTL_REG;
 638:.\Generated_Source\PSoC4/CyLib.c **** 
 639:.\Generated_Source\PSoC4/CyLib.c ****             parameters[0u] =
 640:.\Generated_Source\PSoC4/CyLib.c ****                 (uint32) ((CY_FLASH_KEY_TWO(CY_FLASH_API_OPCODE_CLK_RESTORE) <<  CY_FLASH_PARAM_KEY
 641:.\Generated_Source\PSoC4/CyLib.c ****                             CY_FLASH_KEY_ONE);
 642:.\Generated_Source\PSoC4/CyLib.c ****             parameters[1u] = (uint32) &regValues[0u];
 643:.\Generated_Source\PSoC4/CyLib.c **** 
 644:.\Generated_Source\PSoC4/CyLib.c ****             CY_FLASH_CPUSS_SYSARG_REG = (uint32) &parameters[0u];
 645:.\Generated_Source\PSoC4/CyLib.c ****             CY_FLASH_CPUSS_SYSREQ_REG = CY_FLASH_CPUSS_REQ_START | CY_FLASH_API_OPCODE_CLK_RESTORE;
 646:.\Generated_Source\PSoC4/CyLib.c ****             (void) CY_FLASH_CPUSS_SYSARG_REG;
ARM GAS  C:\Users\SPITFI~1\AppData\Local\Temp\ccTvxQXd.s 			page 16


 647:.\Generated_Source\PSoC4/CyLib.c **** 
 648:.\Generated_Source\PSoC4/CyLib.c ****         #else /* (CY_IP_FM) */
 649:.\Generated_Source\PSoC4/CyLib.c **** 
 650:.\Generated_Source\PSoC4/CyLib.c ****         if ((freq >= CY_SYS_CLK_IMO_MIN_FREQ_MHZ) && (freq <= CY_SYS_CLK_IMO_MAX_FREQ_MHZ))
 651:.\Generated_Source\PSoC4/CyLib.c ****         {
 652:.\Generated_Source\PSoC4/CyLib.c ****             if(freq <= CY_SFLASH_IMO_MAXF0_REG)
 653:.\Generated_Source\PSoC4/CyLib.c ****             {
 654:.\Generated_Source\PSoC4/CyLib.c ****                 bgTrim4 = CY_SFLASH_IMO_ABS0_REG;
 655:.\Generated_Source\PSoC4/CyLib.c ****                 bgTrim5 = CY_SFLASH_IMO_TMPCO0_REG;
 656:.\Generated_Source\PSoC4/CyLib.c ****             }
 657:.\Generated_Source\PSoC4/CyLib.c ****             else if(freq <= CY_SFLASH_IMO_MAXF1_REG)
 658:.\Generated_Source\PSoC4/CyLib.c ****             {
 659:.\Generated_Source\PSoC4/CyLib.c ****                 bgTrim4 = CY_SFLASH_IMO_ABS1_REG;
 660:.\Generated_Source\PSoC4/CyLib.c ****                 bgTrim5 = CY_SFLASH_IMO_TMPCO1_REG;
 661:.\Generated_Source\PSoC4/CyLib.c ****             }
 662:.\Generated_Source\PSoC4/CyLib.c ****             else if(freq <= CY_SFLASH_IMO_MAXF2_REG)
 663:.\Generated_Source\PSoC4/CyLib.c ****             {
 664:.\Generated_Source\PSoC4/CyLib.c ****                 bgTrim4 = CY_SFLASH_IMO_ABS2_REG;
 665:.\Generated_Source\PSoC4/CyLib.c ****                 bgTrim5 = CY_SFLASH_IMO_TMPCO2_REG;
 666:.\Generated_Source\PSoC4/CyLib.c ****             }
 667:.\Generated_Source\PSoC4/CyLib.c ****             else if(freq <= CY_SFLASH_IMO_MAXF3_REG)
 668:.\Generated_Source\PSoC4/CyLib.c ****             {
 669:.\Generated_Source\PSoC4/CyLib.c ****                 bgTrim4 = CY_SFLASH_IMO_ABS3_REG;
 670:.\Generated_Source\PSoC4/CyLib.c ****                 bgTrim5 = CY_SFLASH_IMO_TMPCO3_REG;
 671:.\Generated_Source\PSoC4/CyLib.c ****             }
 672:.\Generated_Source\PSoC4/CyLib.c ****             else
 673:.\Generated_Source\PSoC4/CyLib.c ****             {
 674:.\Generated_Source\PSoC4/CyLib.c ****                 bgTrim4 = CY_SFLASH_IMO_ABS4_REG;
 675:.\Generated_Source\PSoC4/CyLib.c ****                 bgTrim5 = CY_SFLASH_IMO_TMPCO4_REG;
 676:.\Generated_Source\PSoC4/CyLib.c ****             }
 677:.\Generated_Source\PSoC4/CyLib.c **** 
 678:.\Generated_Source\PSoC4/CyLib.c ****             /* Get IMO_TRIM2 value for the new frequency */
 679:.\Generated_Source\PSoC4/CyLib.c ****             newImoTrim2Value = cyImoFreqMhz2Reg[freq - CY_SYS_CLK_IMO_FREQ_TABLE_OFFSET];
 680:.\Generated_Source\PSoC4/CyLib.c **** 
 681:.\Generated_Source\PSoC4/CyLib.c **** 
 682:.\Generated_Source\PSoC4/CyLib.c ****             /****************************************************************************
 683:.\Generated_Source\PSoC4/CyLib.c ****             * The IMO can have a different trim per frequency. To avoid possible corner
 684:.\Generated_Source\PSoC4/CyLib.c ****             * cases where a trim change can exceed the maximum frequency, the trim must
 685:.\Generated_Source\PSoC4/CyLib.c ****             * be applied at a frequency that is low enough.
 686:.\Generated_Source\PSoC4/CyLib.c ****             *
 687:.\Generated_Source\PSoC4/CyLib.c ****             * Comparing IMO_TRIM2 values for the current and new frequencies, since
 688:.\Generated_Source\PSoC4/CyLib.c ****             * IMO_TRIM2 value as a function of IMO frequency is a strictly increasing
 689:.\Generated_Source\PSoC4/CyLib.c ****             * function and is time-invariant.
 690:.\Generated_Source\PSoC4/CyLib.c ****             ***************************************************************************/
 691:.\Generated_Source\PSoC4/CyLib.c ****             if ((newImoTrim2Value >= CY_SYS_CLK_IMO_BOUNDARY_FREQ_TRIM2) && (freq >= CY_SYS_CLK_IMO
 692:.\Generated_Source\PSoC4/CyLib.c ****             {
 693:.\Generated_Source\PSoC4/CyLib.c ****                 /* Set boundary IMO frequency: safe for IMO above 48 MHZ trimming */
 694:.\Generated_Source\PSoC4/CyLib.c ****                 CY_SYS_CLK_IMO_TRIM2_REG = (uint32) cyImoFreqMhz2Reg[CY_SYS_CLK_IMO_TEMP_FREQ_MHZ -
 695:.\Generated_Source\PSoC4/CyLib.c ****                                                                      CY_SYS_CLK_IMO_FREQ_TABLE_OFFS
 696:.\Generated_Source\PSoC4/CyLib.c **** 
 697:.\Generated_Source\PSoC4/CyLib.c ****                 CyDelayCycles(CY_SYS_CLK_IMO_FREQ_TIMEOUT_CYCLES);
 698:.\Generated_Source\PSoC4/CyLib.c **** 
 699:.\Generated_Source\PSoC4/CyLib.c ****                 currentImoTrim2Value = CY_SYS_CLK_IMO_TEMP_FREQ_TRIM2;
 700:.\Generated_Source\PSoC4/CyLib.c ****             }
 701:.\Generated_Source\PSoC4/CyLib.c ****             else
 702:.\Generated_Source\PSoC4/CyLib.c ****             {
 703:.\Generated_Source\PSoC4/CyLib.c ****                 currentImoTrim2Value = (uint8) (CY_SYS_CLK_IMO_TRIM2_REG & CY_SYS_CLK_IMO_FREQ_BITS
ARM GAS  C:\Users\SPITFI~1\AppData\Local\Temp\ccTvxQXd.s 			page 17


 704:.\Generated_Source\PSoC4/CyLib.c ****             }
 705:.\Generated_Source\PSoC4/CyLib.c **** 
 706:.\Generated_Source\PSoC4/CyLib.c **** 
 707:.\Generated_Source\PSoC4/CyLib.c ****             /***************************************************************************
 708:.\Generated_Source\PSoC4/CyLib.c ****             * A trim change needs to be allowed to settle (within 5us) before the Freq
 709:.\Generated_Source\PSoC4/CyLib.c ****             * can be changed to a new frequency.
 710:.\Generated_Source\PSoC4/CyLib.c ****             *
 711:.\Generated_Source\PSoC4/CyLib.c ****             * Comparing IMO_TRIM2 values for the current and new frequencies, since
 712:.\Generated_Source\PSoC4/CyLib.c ****             * IMO_TRIM2 value as a function of IMO frequency is a strictly increasing
 713:.\Generated_Source\PSoC4/CyLib.c ****             * function and is time-invariant.
 714:.\Generated_Source\PSoC4/CyLib.c ****             ***************************************************************************/
 715:.\Generated_Source\PSoC4/CyLib.c ****             if (newImoTrim2Value < currentImoTrim2Value)
 716:.\Generated_Source\PSoC4/CyLib.c ****             {
 717:.\Generated_Source\PSoC4/CyLib.c ****                 /* Set new IMO frequency */
 718:.\Generated_Source\PSoC4/CyLib.c ****                 CY_SYS_CLK_IMO_TRIM2_REG = cyImoFreqMhz2Reg[freq - CY_SYS_CLK_IMO_FREQ_TABLE_OFFSET
 719:.\Generated_Source\PSoC4/CyLib.c ****                 CyDelayCycles(CY_SYS_CLK_IMO_FREQ_TIMEOUT_CYCLES);
 720:.\Generated_Source\PSoC4/CyLib.c ****             }
 721:.\Generated_Source\PSoC4/CyLib.c **** 
 722:.\Generated_Source\PSoC4/CyLib.c ****             /* Set trims for the new IMO frequency */
 723:.\Generated_Source\PSoC4/CyLib.c **** 
 724:.\Generated_Source\PSoC4/CyLib.c ****             #if (CY_IP_IMO_TRIMMABLE_BY_USB)
 725:.\Generated_Source\PSoC4/CyLib.c ****                 if ((1u == usbLock) && (48u == freq))
 726:.\Generated_Source\PSoC4/CyLib.c ****                 {
 727:.\Generated_Source\PSoC4/CyLib.c ****                     imoTrim1Value = CY_SFLASH_IMO_TRIM_USBMODE_48_REG;
 728:.\Generated_Source\PSoC4/CyLib.c ****                 }
 729:.\Generated_Source\PSoC4/CyLib.c ****                 else if ((1u == usbLock) && (24u == freq))
 730:.\Generated_Source\PSoC4/CyLib.c ****                 {
 731:.\Generated_Source\PSoC4/CyLib.c ****                     imoTrim1Value = CY_SFLASH_IMO_TRIM_USBMODE_24_REG;
 732:.\Generated_Source\PSoC4/CyLib.c ****                 }
 733:.\Generated_Source\PSoC4/CyLib.c ****                 else
 734:.\Generated_Source\PSoC4/CyLib.c ****                 {
 735:.\Generated_Source\PSoC4/CyLib.c ****                     imoTrim1Value = (uint8) CY_SFLASH_IMO_TRIM_REG(freq - CY_SYS_CLK_IMO_FREQ_TABLE
 736:.\Generated_Source\PSoC4/CyLib.c ****                 }
 737:.\Generated_Source\PSoC4/CyLib.c ****             #else
 738:.\Generated_Source\PSoC4/CyLib.c ****                 imoTrim1Value = (uint8) CY_SFLASH_IMO_TRIM_REG(freq - CY_SYS_CLK_IMO_FREQ_TABLE_OFF
 739:.\Generated_Source\PSoC4/CyLib.c ****             #endif  /* (CY_IP_IMO_TRIMMABLE_BY_USB) */
 740:.\Generated_Source\PSoC4/CyLib.c **** 
 741:.\Generated_Source\PSoC4/CyLib.c **** 
 742:.\Generated_Source\PSoC4/CyLib.c ****             CY_SYS_CLK_IMO_TRIM1_REG = (uint32) imoTrim1Value;
 743:.\Generated_Source\PSoC4/CyLib.c ****             CY_PWR_BG_TRIM4_REG  = bgTrim4;
 744:.\Generated_Source\PSoC4/CyLib.c ****             CY_PWR_BG_TRIM5_REG  = bgTrim5;
 745:.\Generated_Source\PSoC4/CyLib.c ****             CyDelayUs(CY_SYS_CLK_IMO_TRIM_TIMEOUT_US);
 746:.\Generated_Source\PSoC4/CyLib.c **** 
 747:.\Generated_Source\PSoC4/CyLib.c ****             if (newImoTrim2Value > currentImoTrim2Value)
 748:.\Generated_Source\PSoC4/CyLib.c ****             {
 749:.\Generated_Source\PSoC4/CyLib.c ****                 /* Set new IMO frequency */
 750:.\Generated_Source\PSoC4/CyLib.c ****                 CY_SYS_CLK_IMO_TRIM2_REG = cyImoFreqMhz2Reg[freq - CY_SYS_CLK_IMO_FREQ_TABLE_OFFSET
 751:.\Generated_Source\PSoC4/CyLib.c ****                 CyDelayCycles(CY_SYS_CLK_IMO_FREQ_TIMEOUT_CYCLES);
 752:.\Generated_Source\PSoC4/CyLib.c ****             }
 753:.\Generated_Source\PSoC4/CyLib.c ****         }
 754:.\Generated_Source\PSoC4/CyLib.c ****         else
 755:.\Generated_Source\PSoC4/CyLib.c ****         {
 756:.\Generated_Source\PSoC4/CyLib.c ****             /* Halt CPU in debug mode if new frequency is invalid */
 757:.\Generated_Source\PSoC4/CyLib.c ****             CYASSERT(0u != 0u);
 758:.\Generated_Source\PSoC4/CyLib.c ****         }
 759:.\Generated_Source\PSoC4/CyLib.c **** 
 760:.\Generated_Source\PSoC4/CyLib.c ****         #endif /* (CY_IP_FMLT) */
ARM GAS  C:\Users\SPITFI~1\AppData\Local\Temp\ccTvxQXd.s 			page 18


 761:.\Generated_Source\PSoC4/CyLib.c **** 
 762:.\Generated_Source\PSoC4/CyLib.c ****         #if (CY_IP_IMO_TRIMMABLE_BY_WCO)
 763:.\Generated_Source\PSoC4/CyLib.c ****             if (1u == wcoLock)
 764:.\Generated_Source\PSoC4/CyLib.c ****             {
 765:.\Generated_Source\PSoC4/CyLib.c ****                 CySysClkImoEnableWcoLock();
 766:.\Generated_Source\PSoC4/CyLib.c ****             }
 767:.\Generated_Source\PSoC4/CyLib.c ****         #endif  /* (CY_IP_IMO_TRIMMABLE_BY_WCO) */
 768:.\Generated_Source\PSoC4/CyLib.c **** 
 769:.\Generated_Source\PSoC4/CyLib.c ****         #if (CY_IP_IMO_TRIMMABLE_BY_USB)
 770:.\Generated_Source\PSoC4/CyLib.c ****             if (1u == usbLock)
 771:.\Generated_Source\PSoC4/CyLib.c ****             {
 772:.\Generated_Source\PSoC4/CyLib.c ****                 CySysClkImoEnableUsbLock();
 773:.\Generated_Source\PSoC4/CyLib.c ****             }
 774:.\Generated_Source\PSoC4/CyLib.c ****         #endif  /* (CY_IP_IMO_TRIMMABLE_BY_USB) */
 775:.\Generated_Source\PSoC4/CyLib.c **** 
 776:.\Generated_Source\PSoC4/CyLib.c ****         CyExitCriticalSection(interruptState);
 777:.\Generated_Source\PSoC4/CyLib.c ****     }
 778:.\Generated_Source\PSoC4/CyLib.c **** 
 779:.\Generated_Source\PSoC4/CyLib.c **** #else
 780:.\Generated_Source\PSoC4/CyLib.c **** 
 781:.\Generated_Source\PSoC4/CyLib.c ****     void CySysClkWriteImoFreq(uint32 freq)
 782:.\Generated_Source\PSoC4/CyLib.c ****     {
 783:.\Generated_Source\PSoC4/CyLib.c ****         uint8  interruptState;
 784:.\Generated_Source\PSoC4/CyLib.c ****         uint8  imoTrim1Value;
 785:.\Generated_Source\PSoC4/CyLib.c **** 
 786:.\Generated_Source\PSoC4/CyLib.c ****         #if (CY_IP_IMO_TRIMMABLE_BY_WCO)
 787:.\Generated_Source\PSoC4/CyLib.c ****             uint32 wcoLock = 0u;
 788:.\Generated_Source\PSoC4/CyLib.c ****         #endif  /* (CY_IP_IMO_TRIMMABLE_BY_WCO) */        
 789:.\Generated_Source\PSoC4/CyLib.c ****         
 790:.\Generated_Source\PSoC4/CyLib.c ****         #if (CY_IP_IMO_TRIMMABLE_BY_USB)
 791:.\Generated_Source\PSoC4/CyLib.c ****             uint32 usbLock = 0u;
 792:.\Generated_Source\PSoC4/CyLib.c ****         #endif  /* (CY_IP_IMO_TRIMMABLE_BY_USB) */
 793:.\Generated_Source\PSoC4/CyLib.c **** 
 794:.\Generated_Source\PSoC4/CyLib.c ****         #if (CY_PSOC4_4000)
 795:.\Generated_Source\PSoC4/CyLib.c ****             if ((freq == 24u) || (freq == 32u) || (freq == 48u))
 796:.\Generated_Source\PSoC4/CyLib.c ****         #else
 797:.\Generated_Source\PSoC4/CyLib.c ****             if ((freq == 24u) || (freq == 28u) || (freq == 32u) ||
 798:.\Generated_Source\PSoC4/CyLib.c ****                 (freq == 36u) || (freq == 40u) || (freq == 44u) ||
 799:.\Generated_Source\PSoC4/CyLib.c ****                 (freq == 48u))
 800:.\Generated_Source\PSoC4/CyLib.c ****         #endif /* (CY_PSOC4_4000) */
 801:.\Generated_Source\PSoC4/CyLib.c ****         {
 802:.\Generated_Source\PSoC4/CyLib.c ****             interruptState = CyEnterCriticalSection();
 803:.\Generated_Source\PSoC4/CyLib.c **** 
 804:.\Generated_Source\PSoC4/CyLib.c ****             #if (CY_IP_IMO_TRIMMABLE_BY_WCO)
 805:.\Generated_Source\PSoC4/CyLib.c ****                 if(0u != CySysClkImoGetWcoLock())
 806:.\Generated_Source\PSoC4/CyLib.c ****                 {
 807:.\Generated_Source\PSoC4/CyLib.c ****                     wcoLock = 1u;
 808:.\Generated_Source\PSoC4/CyLib.c ****                     CySysClkImoDisableWcoLock();
 809:.\Generated_Source\PSoC4/CyLib.c ****                 }
 810:.\Generated_Source\PSoC4/CyLib.c ****             #endif  /* (CY_IP_IMO_TRIMMABLE_BY_WCO) */
 811:.\Generated_Source\PSoC4/CyLib.c **** 
 812:.\Generated_Source\PSoC4/CyLib.c ****             #if (CY_IP_IMO_TRIMMABLE_BY_USB)
 813:.\Generated_Source\PSoC4/CyLib.c **** 
 814:.\Generated_Source\PSoC4/CyLib.c ****                 #if (CYDEV_IMO_TRIMMED_BY_USB == 0u)
 815:.\Generated_Source\PSoC4/CyLib.c ****                     if(0u != CySysClkImoGetUsbLock())
 816:.\Generated_Source\PSoC4/CyLib.c ****                     {
 817:.\Generated_Source\PSoC4/CyLib.c ****                 #endif  /* (CYDEV_IMO_TRIMMED_BY_USB == 0u) */
ARM GAS  C:\Users\SPITFI~1\AppData\Local\Temp\ccTvxQXd.s 			page 19


 818:.\Generated_Source\PSoC4/CyLib.c **** 
 819:.\Generated_Source\PSoC4/CyLib.c ****                     if (48u == freq)
 820:.\Generated_Source\PSoC4/CyLib.c ****                     {
 821:.\Generated_Source\PSoC4/CyLib.c ****                         usbLock = 1u;
 822:.\Generated_Source\PSoC4/CyLib.c ****                         CySysClkImoDisableUsbLock();
 823:.\Generated_Source\PSoC4/CyLib.c ****                     }
 824:.\Generated_Source\PSoC4/CyLib.c **** 
 825:.\Generated_Source\PSoC4/CyLib.c ****                 #if (CYDEV_IMO_TRIMMED_BY_USB == 0u)
 826:.\Generated_Source\PSoC4/CyLib.c ****                     }
 827:.\Generated_Source\PSoC4/CyLib.c ****                 #endif  /* (CYDEV_IMO_TRIMMED_BY_USB == 0u) */
 828:.\Generated_Source\PSoC4/CyLib.c **** 
 829:.\Generated_Source\PSoC4/CyLib.c ****             #endif  /* (CYDEV_IMO_TRIMMED_BY_USB == 0u) */
 830:.\Generated_Source\PSoC4/CyLib.c **** 
 831:.\Generated_Source\PSoC4/CyLib.c **** 
 832:.\Generated_Source\PSoC4/CyLib.c ****             /* Set IMO to 24 MHz - CLK_IMO_SELECT.FREQ = 0 */
 833:.\Generated_Source\PSoC4/CyLib.c ****             CY_SYS_CLK_IMO_SELECT_REG &= ((uint32) ~CY_SYS_CLK_IMO_SELECT_FREQ_MASK);
 834:.\Generated_Source\PSoC4/CyLib.c **** 
 835:.\Generated_Source\PSoC4/CyLib.c **** 
 836:.\Generated_Source\PSoC4/CyLib.c ****             /* Apply coarse trim */
 837:.\Generated_Source\PSoC4/CyLib.c ****             #if (CY_IP_IMO_TRIMMABLE_BY_USB)
 838:.\Generated_Source\PSoC4/CyLib.c ****                 if ((1u == usbLock) && (48u == freq))
 839:.\Generated_Source\PSoC4/CyLib.c ****                 {
 840:.\Generated_Source\PSoC4/CyLib.c ****                     imoTrim1Value = CY_SFLASH_IMO_TRIM_USBMODE_48_REG;
 841:.\Generated_Source\PSoC4/CyLib.c ****                 }
 842:.\Generated_Source\PSoC4/CyLib.c ****                 else if ((1u == usbLock) && (24u == freq))
 843:.\Generated_Source\PSoC4/CyLib.c ****                 {
 844:.\Generated_Source\PSoC4/CyLib.c ****                     imoTrim1Value = CY_SFLASH_IMO_TRIM_USBMODE_24_REG;
 845:.\Generated_Source\PSoC4/CyLib.c ****                 }
 846:.\Generated_Source\PSoC4/CyLib.c ****                 else
 847:.\Generated_Source\PSoC4/CyLib.c ****                 {
 848:.\Generated_Source\PSoC4/CyLib.c ****                     imoTrim1Value = (uint8) CY_SFLASH_IMO_TRIM_REG(freq - CY_SYS_CLK_IMO_MIN_FREQ_M
 849:.\Generated_Source\PSoC4/CyLib.c ****                 }
 850:.\Generated_Source\PSoC4/CyLib.c ****             #else
 851:.\Generated_Source\PSoC4/CyLib.c ****                 imoTrim1Value = (uint8) CY_SFLASH_IMO_TRIM_REG(freq - CY_SYS_CLK_IMO_MIN_FREQ_MHZ);
 852:.\Generated_Source\PSoC4/CyLib.c ****             #endif  /* (CY_IP_IMO_TRIMMABLE_BY_USB) */
 853:.\Generated_Source\PSoC4/CyLib.c ****             CY_SYS_CLK_IMO_TRIM1_REG = (uint32) imoTrim1Value;
 854:.\Generated_Source\PSoC4/CyLib.c **** 
 855:.\Generated_Source\PSoC4/CyLib.c ****             /* Zero out fine trim */
 856:.\Generated_Source\PSoC4/CyLib.c ****             CY_SYS_CLK_IMO_TRIM2_REG = CY_SYS_CLK_IMO_TRIM2_REG & ((uint32) ~CY_SYS_CLK_IMO_TRIM2_F
 857:.\Generated_Source\PSoC4/CyLib.c **** 
 858:.\Generated_Source\PSoC4/CyLib.c ****             /* Apply TC trim */
 859:.\Generated_Source\PSoC4/CyLib.c ****             CY_SYS_CLK_IMO_TRIM3_REG = (CY_SYS_CLK_IMO_TRIM3_REG & ((uint32) ~CY_SYS_CLK_IMO_TRIM3_
 860:.\Generated_Source\PSoC4/CyLib.c ****                 (CY_SFLASH_IMO_TCTRIM_REG(freq - CY_SYS_CLK_IMO_MIN_FREQ_MHZ) & CY_SYS_CLK_IMO_TRIM
 861:.\Generated_Source\PSoC4/CyLib.c **** 
 862:.\Generated_Source\PSoC4/CyLib.c ****             CyDelayCycles(CY_SYS_CLK_IMO_TRIM_DELAY_CYCLES);
 863:.\Generated_Source\PSoC4/CyLib.c **** 
 864:.\Generated_Source\PSoC4/CyLib.c ****             if (freq > CY_SYS_CLK_IMO_MIN_FREQ_MHZ)
 865:.\Generated_Source\PSoC4/CyLib.c ****             {
 866:.\Generated_Source\PSoC4/CyLib.c ****                 /* Select nearby intermediate frequency */
 867:.\Generated_Source\PSoC4/CyLib.c ****                 CY_SYS_CLK_IMO_SELECT_REG = (CY_SYS_CLK_IMO_SELECT_REG & ((uint32) ~CY_SYS_CLK_IMO_
 868:.\Generated_Source\PSoC4/CyLib.c ****                     (((freq - 4u - CY_SYS_CLK_IMO_MIN_FREQ_MHZ) >> 2u) & CY_SYS_CLK_IMO_SELECT_FREQ
 869:.\Generated_Source\PSoC4/CyLib.c **** 
 870:.\Generated_Source\PSoC4/CyLib.c ****                 CyDelayCycles(CY_SYS_CLK_IMO_TRIM_DELAY_CYCLES);
 871:.\Generated_Source\PSoC4/CyLib.c **** 
 872:.\Generated_Source\PSoC4/CyLib.c ****                 /* Make small step to final frequency */
 873:.\Generated_Source\PSoC4/CyLib.c ****                 /* Select nearby intermediate frequency */
 874:.\Generated_Source\PSoC4/CyLib.c ****                 CY_SYS_CLK_IMO_SELECT_REG = (CY_SYS_CLK_IMO_SELECT_REG & ((uint32) ~CY_SYS_CLK_IMO_
ARM GAS  C:\Users\SPITFI~1\AppData\Local\Temp\ccTvxQXd.s 			page 20


 875:.\Generated_Source\PSoC4/CyLib.c ****                     (((freq - CY_SYS_CLK_IMO_MIN_FREQ_MHZ) >> 2u) & CY_SYS_CLK_IMO_SELECT_FREQ_MASK
 876:.\Generated_Source\PSoC4/CyLib.c ****             }
 877:.\Generated_Source\PSoC4/CyLib.c **** 
 878:.\Generated_Source\PSoC4/CyLib.c ****             #if (CY_IP_IMO_TRIMMABLE_BY_WCO)
 879:.\Generated_Source\PSoC4/CyLib.c ****                 if (1u == wcoLock)
 880:.\Generated_Source\PSoC4/CyLib.c ****                 {
 881:.\Generated_Source\PSoC4/CyLib.c ****                     CySysClkImoEnableWcoLock();
 882:.\Generated_Source\PSoC4/CyLib.c ****                 }
 883:.\Generated_Source\PSoC4/CyLib.c ****             #endif  /* (CY_IP_IMO_TRIMMABLE_BY_WCO) */
 884:.\Generated_Source\PSoC4/CyLib.c ****         
 885:.\Generated_Source\PSoC4/CyLib.c ****         
 886:.\Generated_Source\PSoC4/CyLib.c ****             #if (CY_IP_IMO_TRIMMABLE_BY_USB)
 887:.\Generated_Source\PSoC4/CyLib.c ****                 if (1u == usbLock)
 888:.\Generated_Source\PSoC4/CyLib.c ****                 {
 889:.\Generated_Source\PSoC4/CyLib.c ****                     CySysClkImoEnableUsbLock();
 890:.\Generated_Source\PSoC4/CyLib.c ****                 }
 891:.\Generated_Source\PSoC4/CyLib.c ****             #endif  /* (CY_IP_IMO_TRIMMABLE_BY_USB) */
 892:.\Generated_Source\PSoC4/CyLib.c **** 
 893:.\Generated_Source\PSoC4/CyLib.c ****             CyExitCriticalSection(interruptState);
 894:.\Generated_Source\PSoC4/CyLib.c ****         }
 895:.\Generated_Source\PSoC4/CyLib.c ****         else
 896:.\Generated_Source\PSoC4/CyLib.c ****         {
 897:.\Generated_Source\PSoC4/CyLib.c ****             /* Halt CPU in debug mode if new frequency is invalid */
 898:.\Generated_Source\PSoC4/CyLib.c ****             CYASSERT(0u != 0u);
 899:.\Generated_Source\PSoC4/CyLib.c ****         }
 900:.\Generated_Source\PSoC4/CyLib.c ****     }
 901:.\Generated_Source\PSoC4/CyLib.c **** 
 902:.\Generated_Source\PSoC4/CyLib.c **** #endif /* (CY_IP_SRSSV2) */
 903:.\Generated_Source\PSoC4/CyLib.c **** 
 904:.\Generated_Source\PSoC4/CyLib.c **** 
 905:.\Generated_Source\PSoC4/CyLib.c **** #if(CY_IP_SRSSLT)
 906:.\Generated_Source\PSoC4/CyLib.c ****     /*******************************************************************************
 907:.\Generated_Source\PSoC4/CyLib.c ****     * Function Name: CySysClkWriteHfclkDiv
 908:.\Generated_Source\PSoC4/CyLib.c ****     ****************************************************************************//**
 909:.\Generated_Source\PSoC4/CyLib.c ****     *
 910:.\Generated_Source\PSoC4/CyLib.c ****     * Selects the pre-scaler divider value for HFCLK from IMO.
 911:.\Generated_Source\PSoC4/CyLib.c ****     *
 912:.\Generated_Source\PSoC4/CyLib.c ****     * The HFCLK predivider allows the device to divide the HFCLK selection mux
 913:.\Generated_Source\PSoC4/CyLib.c ****     * input before use as HFCLK. The predivider is capable of dividing the HFCLK by
 914:.\Generated_Source\PSoC4/CyLib.c ****     * powers of 2 between 1 and 8.
 915:.\Generated_Source\PSoC4/CyLib.c ****     *
 916:.\Generated_Source\PSoC4/CyLib.c ****     * PSoC 4000: The SYSCLK has the speed of 16 MHz, so HFCLK and SYSCLK dividers
 917:.\Generated_Source\PSoC4/CyLib.c ****     * should be selected in a way, not to exceed 16 MHz for SYSCLK.
 918:.\Generated_Source\PSoC4/CyLib.c ****     *
 919:.\Generated_Source\PSoC4/CyLib.c ****     * If the SYSCLK clock frequency increases during the device operation, call
 920:.\Generated_Source\PSoC4/CyLib.c ****     * \ref CySysFlashSetWaitCycles() with the appropriate parameter to adjust the
 921:.\Generated_Source\PSoC4/CyLib.c ****     * number of clock cycles the cache will wait before sampling data comes back
 922:.\Generated_Source\PSoC4/CyLib.c ****     * from Flash. If the SYSCLK clock frequency decreases, you can call
 923:.\Generated_Source\PSoC4/CyLib.c ****     * \ref CySysFlashSetWaitCycles() to improve the CPU performance. See
 924:.\Generated_Source\PSoC4/CyLib.c ****     * \ref CySysFlashSetWaitCycles() description for more information.
 925:.\Generated_Source\PSoC4/CyLib.c ****     *
 926:.\Generated_Source\PSoC4/CyLib.c ****     * \param \ref CY_SYS_CLK_HFCLK_DIV_NODIV    Transparent mode (w/o dividing)
 927:.\Generated_Source\PSoC4/CyLib.c ****     * \param \ref CY_SYS_CLK_HFCLK_DIV_2        Divide selected clock source by 2
 928:.\Generated_Source\PSoC4/CyLib.c ****     * \param \ref CY_SYS_CLK_HFCLK_DIV_4        Divide selected clock source by 4
 929:.\Generated_Source\PSoC4/CyLib.c ****     * \param \ref CY_SYS_CLK_HFCLK_DIV_8        Divide selected clock source by 8
 930:.\Generated_Source\PSoC4/CyLib.c ****     *
 931:.\Generated_Source\PSoC4/CyLib.c ****     *******************************************************************************/
ARM GAS  C:\Users\SPITFI~1\AppData\Local\Temp\ccTvxQXd.s 			page 21


 932:.\Generated_Source\PSoC4/CyLib.c ****     void CySysClkWriteHfclkDiv(uint32 divider)
 933:.\Generated_Source\PSoC4/CyLib.c ****     {
 208              		.loc 1 933 0
 209              		.cfi_startproc
 210              	.LVL14:
 211 0000 10B5     		push	{r4, lr}
 212              		.cfi_def_cfa_offset 8
 213              		.cfi_offset 4, -8
 214              		.cfi_offset 14, -4
 215 0002 041C     		mov	r4, r0
 934:.\Generated_Source\PSoC4/CyLib.c ****         uint8  interruptState;
 935:.\Generated_Source\PSoC4/CyLib.c **** 
 936:.\Generated_Source\PSoC4/CyLib.c ****         interruptState = CyEnterCriticalSection();
 216              		.loc 1 936 0
 217 0004 FFF7FEFF 		bl	CyEnterCriticalSection
 218              	.LVL15:
 937:.\Generated_Source\PSoC4/CyLib.c **** 
 938:.\Generated_Source\PSoC4/CyLib.c ****         CY_SYS_CLK_SELECT_REG = ((CY_SYS_CLK_SELECT_REG & ((uint32) (~(CY_SYS_CLK_SELECT_HFCLK_DIV_
 219              		.loc 1 938 0
 220 0008 054A     		ldr	r2, .L17
 221 000a 1368     		ldr	r3, [r2]
 222 000c 0C21     		mov	r1, #12
 223 000e 8B43     		bic	r3, r1
 939:.\Generated_Source\PSoC4/CyLib.c ****                                         CY_SYS_CLK_SELECT_HFCLK_DIV_SHIFT)))) |
 940:.\Generated_Source\PSoC4/CyLib.c ****                     ((uint32)((divider & CY_SYS_CLK_SELECT_HFCLK_DIV_MASK) << CY_SYS_CLK_SELECT_HFC
 224              		.loc 1 940 0
 225 0010 0939     		sub	r1, r1, #9
 226 0012 0C40     		and	r4, r1
 227              	.LVL16:
 228 0014 A400     		lsl	r4, r4, #2
 939:.\Generated_Source\PSoC4/CyLib.c ****                                         CY_SYS_CLK_SELECT_HFCLK_DIV_SHIFT)))) |
 229              		.loc 1 939 0
 230 0016 1C43     		orr	r4, r3
 938:.\Generated_Source\PSoC4/CyLib.c ****                                         CY_SYS_CLK_SELECT_HFCLK_DIV_SHIFT)))) |
 231              		.loc 1 938 0
 232 0018 1460     		str	r4, [r2]
 941:.\Generated_Source\PSoC4/CyLib.c **** 
 942:.\Generated_Source\PSoC4/CyLib.c ****         CyExitCriticalSection(interruptState);
 233              		.loc 1 942 0
 234 001a FFF7FEFF 		bl	CyExitCriticalSection
 235              	.LVL17:
 943:.\Generated_Source\PSoC4/CyLib.c ****     }
 236              		.loc 1 943 0
 237              		@ sp needed
 238 001e 10BD     		pop	{r4, pc}
 239              	.L18:
 240              		.align	2
 241              	.L17:
 242 0020 28000340 		.word	1073938472
 243              		.cfi_endproc
 244              	.LFE6:
 245              		.size	CySysClkWriteHfclkDiv, .-CySysClkWriteHfclkDiv
 246              		.section	.text.CySysGetResetReason,"ax",%progbits
 247              		.align	2
 248              		.global	CySysGetResetReason
 249              		.code	16
 250              		.thumb_func
ARM GAS  C:\Users\SPITFI~1\AppData\Local\Temp\ccTvxQXd.s 			page 22


 251              		.type	CySysGetResetReason, %function
 252              	CySysGetResetReason:
 253              	.LFB7:
 944:.\Generated_Source\PSoC4/CyLib.c **** #endif /* (CY_IP_SRSSLT) */
 945:.\Generated_Source\PSoC4/CyLib.c **** 
 946:.\Generated_Source\PSoC4/CyLib.c **** 
 947:.\Generated_Source\PSoC4/CyLib.c **** #if (CY_IP_ECO)
 948:.\Generated_Source\PSoC4/CyLib.c **** 
 949:.\Generated_Source\PSoC4/CyLib.c ****     /*******************************************************************************
 950:.\Generated_Source\PSoC4/CyLib.c ****     * Function Name: CySysClkEcoStart
 951:.\Generated_Source\PSoC4/CyLib.c ****     ****************************************************************************//**
 952:.\Generated_Source\PSoC4/CyLib.c ****     *
 953:.\Generated_Source\PSoC4/CyLib.c ****     * Starts the External Crystal Oscillator (ECO). Refer to the device datasheet
 954:.\Generated_Source\PSoC4/CyLib.c ****     * for the ECO startup time.
 955:.\Generated_Source\PSoC4/CyLib.c ****     *
 956:.\Generated_Source\PSoC4/CyLib.c ****     * The timeout interval is measured based on the system frequency defined by
 957:.\Generated_Source\PSoC4/CyLib.c ****     * PSoC Creator at build time. If System clock frequency is changed in
 958:.\Generated_Source\PSoC4/CyLib.c ****     * runtime, the \ref CyDelayFreq() with the appropriate parameter should be
 959:.\Generated_Source\PSoC4/CyLib.c ****     * called.
 960:.\Generated_Source\PSoC4/CyLib.c ****     *
 961:.\Generated_Source\PSoC4/CyLib.c ****     * PSoC 4100 BLE / PSoC 4200 BLE: The WCO must be enabled prior to enabling ECO.
 962:.\Generated_Source\PSoC4/CyLib.c ****     *
 963:.\Generated_Source\PSoC4/CyLib.c ****     * \param timeoutUs Timeout in microseconds.
 964:.\Generated_Source\PSoC4/CyLib.c ****     *
 965:.\Generated_Source\PSoC4/CyLib.c ****     * If zero is specified, the function does not wait for timeout and returns
 966:.\Generated_Source\PSoC4/CyLib.c ****     * CYRET_SUCCESS. If non-zero is specified, the function waits for the timeout.
 967:.\Generated_Source\PSoC4/CyLib.c ****     *
 968:.\Generated_Source\PSoC4/CyLib.c ****     * \return \ref CYRET_SUCCESS Completed successfully. The ECO is oscillating and
 969:.\Generated_Source\PSoC4/CyLib.c ****     * amplitude reached 60% and it does not mean 24 MHz crystal is within 50 ppm.
 970:.\Generated_Source\PSoC4/CyLib.c ****     *
 971:.\Generated_Source\PSoC4/CyLib.c ****     * \return \ref CYRET_TIMEOUT Timeout occurred. If the crystal is not oscillating
 972:.\Generated_Source\PSoC4/CyLib.c ****     * or amplitude didn't reach 60% after specified amount of time, CYRET_TIMEOUT
 973:.\Generated_Source\PSoC4/CyLib.c ****     * is returned.
 974:.\Generated_Source\PSoC4/CyLib.c ****     *
 975:.\Generated_Source\PSoC4/CyLib.c ****     * \return \ref CYRET_BAD_PARAM One or more invalid parameters.
 976:.\Generated_Source\PSoC4/CyLib.c ****     *
 977:.\Generated_Source\PSoC4/CyLib.c ****     *******************************************************************************/
 978:.\Generated_Source\PSoC4/CyLib.c ****     cystatus CySysClkEcoStart(uint32 timeoutUs)
 979:.\Generated_Source\PSoC4/CyLib.c ****     {
 980:.\Generated_Source\PSoC4/CyLib.c ****         cystatus returnStatus = CYRET_SUCCESS;
 981:.\Generated_Source\PSoC4/CyLib.c **** 
 982:.\Generated_Source\PSoC4/CyLib.c ****         #if (CY_IP_WCO_BLESS)
 983:.\Generated_Source\PSoC4/CyLib.c ****             /* Enable the RF oscillator band gap */
 984:.\Generated_Source\PSoC4/CyLib.c ****             CY_SYS_XTAL_BLESS_RF_CONFIG_REG |= CY_SYS_XTAL_BLESS_RF_CONFIG_RF_ENABLE;
 985:.\Generated_Source\PSoC4/CyLib.c **** 
 986:.\Generated_Source\PSoC4/CyLib.c ****             /* Update trimming register */
 987:.\Generated_Source\PSoC4/CyLib.c ****             CY_SYS_XTAL_BLERD_BB_XO_REG = CY_SYS_XTAL_BLERD_BB_XO_TRIM;
 988:.\Generated_Source\PSoC4/CyLib.c **** 
 989:.\Generated_Source\PSoC4/CyLib.c ****             /* Enable the Crystal */
 990:.\Generated_Source\PSoC4/CyLib.c ****             CY_SYS_XTAL_BLERD_DBUS_REG |= CY_SYS_XTAL_BLERD_DBUS_XTAL_ENABLE;
 991:.\Generated_Source\PSoC4/CyLib.c ****         #else /* CY_IP_WCO_SRSSV2 */
 992:.\Generated_Source\PSoC4/CyLib.c ****             CY_SYS_CLK_ECO_CONFIG_REG |= CY_SYS_CLK_ECO_CONFIG_ENABLE;
 993:.\Generated_Source\PSoC4/CyLib.c ****             CyDelayUs(CY_SYS_CLK_ECO_CONFIG_CLK_EN_TIMEOUT_US);
 994:.\Generated_Source\PSoC4/CyLib.c ****             CY_SYS_CLK_ECO_CONFIG_REG |= CY_SYS_CLK_ECO_CONFIG_CLK_EN;
 995:.\Generated_Source\PSoC4/CyLib.c ****         #endif /* (CY_IP_WCO_BLESS) */
 996:.\Generated_Source\PSoC4/CyLib.c **** 
 997:.\Generated_Source\PSoC4/CyLib.c ****         if(timeoutUs > 0u)
ARM GAS  C:\Users\SPITFI~1\AppData\Local\Temp\ccTvxQXd.s 			page 23


 998:.\Generated_Source\PSoC4/CyLib.c ****         {
 999:.\Generated_Source\PSoC4/CyLib.c ****             returnStatus = CYRET_TIMEOUT;
1000:.\Generated_Source\PSoC4/CyLib.c **** 
1001:.\Generated_Source\PSoC4/CyLib.c ****             for( ; timeoutUs > 0u; timeoutUs--)
1002:.\Generated_Source\PSoC4/CyLib.c ****             {
1003:.\Generated_Source\PSoC4/CyLib.c ****                 CyDelayUs(1u);
1004:.\Generated_Source\PSoC4/CyLib.c **** 
1005:.\Generated_Source\PSoC4/CyLib.c ****                 if(0u != CySysClkEcoReadStatus())
1006:.\Generated_Source\PSoC4/CyLib.c ****                 {
1007:.\Generated_Source\PSoC4/CyLib.c ****                     returnStatus = CYRET_SUCCESS;
1008:.\Generated_Source\PSoC4/CyLib.c ****                     break;
1009:.\Generated_Source\PSoC4/CyLib.c ****                 }
1010:.\Generated_Source\PSoC4/CyLib.c ****             }
1011:.\Generated_Source\PSoC4/CyLib.c **** 
1012:.\Generated_Source\PSoC4/CyLib.c ****         }
1013:.\Generated_Source\PSoC4/CyLib.c **** 
1014:.\Generated_Source\PSoC4/CyLib.c ****         return(returnStatus);
1015:.\Generated_Source\PSoC4/CyLib.c ****     }
1016:.\Generated_Source\PSoC4/CyLib.c **** 
1017:.\Generated_Source\PSoC4/CyLib.c **** 
1018:.\Generated_Source\PSoC4/CyLib.c ****     /*******************************************************************************
1019:.\Generated_Source\PSoC4/CyLib.c ****     * Function Name: CySysClkEcoStop
1020:.\Generated_Source\PSoC4/CyLib.c ****     ****************************************************************************//**
1021:.\Generated_Source\PSoC4/CyLib.c ****     *
1022:.\Generated_Source\PSoC4/CyLib.c ****     * Stops the megahertz crystal.
1023:.\Generated_Source\PSoC4/CyLib.c ****     *
1024:.\Generated_Source\PSoC4/CyLib.c ****     * If ECO is disabled when it is sourcing HFCLK, the CPU will halt. In addition,
1025:.\Generated_Source\PSoC4/CyLib.c ****     * for PSoC 4100 BLE / PSoC 4200 BLE devices, the BLE sub-system will stop
1026:.\Generated_Source\PSoC4/CyLib.c ****     * functioning.
1027:.\Generated_Source\PSoC4/CyLib.c ****     *
1028:.\Generated_Source\PSoC4/CyLib.c ****     *******************************************************************************/
1029:.\Generated_Source\PSoC4/CyLib.c ****     void CySysClkEcoStop(void)
1030:.\Generated_Source\PSoC4/CyLib.c ****     {
1031:.\Generated_Source\PSoC4/CyLib.c ****         #if (CY_IP_WCO_BLESS)
1032:.\Generated_Source\PSoC4/CyLib.c ****             /* Disable the RF oscillator band gap */
1033:.\Generated_Source\PSoC4/CyLib.c ****             CY_SYS_XTAL_BLESS_RF_CONFIG_REG &= (uint32) ~CY_SYS_XTAL_BLESS_RF_CONFIG_RF_ENABLE;
1034:.\Generated_Source\PSoC4/CyLib.c **** 
1035:.\Generated_Source\PSoC4/CyLib.c ****             /* Disable the Crystal */
1036:.\Generated_Source\PSoC4/CyLib.c ****             CY_SYS_XTAL_BLERD_DBUS_REG &= (uint32) ~CY_SYS_XTAL_BLERD_DBUS_XTAL_ENABLE;
1037:.\Generated_Source\PSoC4/CyLib.c ****         #else
1038:.\Generated_Source\PSoC4/CyLib.c ****             CY_SYS_CLK_ECO_CONFIG_REG &= (uint32) ~(CY_SYS_CLK_ECO_CONFIG_ENABLE | CY_SYS_CLK_ECO_C
1039:.\Generated_Source\PSoC4/CyLib.c ****         #endif /* (CY_IP_WCO_BLESS) */
1040:.\Generated_Source\PSoC4/CyLib.c ****     }
1041:.\Generated_Source\PSoC4/CyLib.c **** 
1042:.\Generated_Source\PSoC4/CyLib.c **** 
1043:.\Generated_Source\PSoC4/CyLib.c ****     /*******************************************************************************
1044:.\Generated_Source\PSoC4/CyLib.c ****     * Function Name: CySysClkEcoReadStatus
1045:.\Generated_Source\PSoC4/CyLib.c ****     ****************************************************************************//**
1046:.\Generated_Source\PSoC4/CyLib.c ****     *
1047:.\Generated_Source\PSoC4/CyLib.c ****     * Reads the status bit for the megahertz crystal.
1048:.\Generated_Source\PSoC4/CyLib.c ****     *
1049:.\Generated_Source\PSoC4/CyLib.c ****     * For PSoC 4100 BLE / PSoC 4200 BLE devices, the status bit is the
1050:.\Generated_Source\PSoC4/CyLib.c ****     * XO_AMP_DETECT bit in FSM register.
1051:.\Generated_Source\PSoC4/CyLib.c ****     *
1052:.\Generated_Source\PSoC4/CyLib.c ****     * For PSoC 4200L devices, the error status bit is the WATCHDOG_ERROR bit in
1053:.\Generated_Source\PSoC4/CyLib.c ****     * ECO_STATUS register.
1054:.\Generated_Source\PSoC4/CyLib.c ****     *
ARM GAS  C:\Users\SPITFI~1\AppData\Local\Temp\ccTvxQXd.s 			page 24


1055:.\Generated_Source\PSoC4/CyLib.c ****     * \return PSoC 4100 BLE/PSoC 4200 BLE: Non-zero indicates that ECO output
1056:.\Generated_Source\PSoC4/CyLib.c ****     * reached 50 ppm and is oscillating in valid range.
1057:.\Generated_Source\PSoC4/CyLib.c ****     *
1058:.\Generated_Source\PSoC4/CyLib.c ****     * \return PSoC 4200L: Non-zero indicates that ECO is running.
1059:.\Generated_Source\PSoC4/CyLib.c ****     *
1060:.\Generated_Source\PSoC4/CyLib.c ****     *******************************************************************************/
1061:.\Generated_Source\PSoC4/CyLib.c ****     uint32 CySysClkEcoReadStatus(void)
1062:.\Generated_Source\PSoC4/CyLib.c ****     {
1063:.\Generated_Source\PSoC4/CyLib.c ****         uint32 returnValue;
1064:.\Generated_Source\PSoC4/CyLib.c **** 
1065:.\Generated_Source\PSoC4/CyLib.c ****         #if (CY_IP_WCO_BLESS)
1066:.\Generated_Source\PSoC4/CyLib.c ****             returnValue = CY_SYS_XTAL_BLERD_FSM_REG & CY_SYS_XTAL_BLERD_FSM_XO_AMP_DETECT;
1067:.\Generated_Source\PSoC4/CyLib.c ****         #else
1068:.\Generated_Source\PSoC4/CyLib.c ****             returnValue = (0u != (CY_SYS_CLK_ECO_STATUS_REG & CY_SYS_CLK_ECO_STATUS_WATCHDOG_ERROR)
1069:.\Generated_Source\PSoC4/CyLib.c ****         #endif /* (CY_IP_WCO_BLESS) */
1070:.\Generated_Source\PSoC4/CyLib.c **** 
1071:.\Generated_Source\PSoC4/CyLib.c ****         return (returnValue);
1072:.\Generated_Source\PSoC4/CyLib.c ****     }
1073:.\Generated_Source\PSoC4/CyLib.c **** 
1074:.\Generated_Source\PSoC4/CyLib.c ****     #if (CY_IP_ECO_BLESS)
1075:.\Generated_Source\PSoC4/CyLib.c ****         /*******************************************************************************
1076:.\Generated_Source\PSoC4/CyLib.c ****         * Function Name: CySysClkWriteEcoDiv
1077:.\Generated_Source\PSoC4/CyLib.c ****         ****************************************************************************//**
1078:.\Generated_Source\PSoC4/CyLib.c ****         *
1079:.\Generated_Source\PSoC4/CyLib.c ****         * Selects value for the ECO divider.
1080:.\Generated_Source\PSoC4/CyLib.c ****         *
1081:.\Generated_Source\PSoC4/CyLib.c ****         * The ECO must not be the HFCLK clock source when this function is called.
1082:.\Generated_Source\PSoC4/CyLib.c ****         * The HFCLK source can be changed to the other clock source by call to the
1083:.\Generated_Source\PSoC4/CyLib.c ****         * CySysClkWriteHfclkDirect() function. If the ECO sources the HFCLK this
1084:.\Generated_Source\PSoC4/CyLib.c ****         * function will not have any effect if compiler in release mode, and halt the
1085:.\Generated_Source\PSoC4/CyLib.c ****         * CPU when compiler in debug mode.
1086:.\Generated_Source\PSoC4/CyLib.c ****         *
1087:.\Generated_Source\PSoC4/CyLib.c ****         * If the SYSCLK clock frequency increases during the device operation, call
1088:.\Generated_Source\PSoC4/CyLib.c ****         * CySysFlashSetWaitCycles() with the appropriate parameter to adjust the number
1089:.\Generated_Source\PSoC4/CyLib.c ****         * of clock cycles the cache will wait before sampling data comes back from
1090:.\Generated_Source\PSoC4/CyLib.c ****         * Flash. If the SYSCLK clock frequency decreases, you can call
1091:.\Generated_Source\PSoC4/CyLib.c ****         * CySysFlashSetWaitCycles() to improve the CPU performance. See
1092:.\Generated_Source\PSoC4/CyLib.c ****         * CySysFlashSetWaitCycles() description for more information.
1093:.\Generated_Source\PSoC4/CyLib.c ****         *
1094:.\Generated_Source\PSoC4/CyLib.c ****         * \param divider Power of 2 divider selection.
1095:.\Generated_Source\PSoC4/CyLib.c ****         * - \ref CY_SYS_CLK_ECO_DIV1
1096:.\Generated_Source\PSoC4/CyLib.c ****         * - \ref CY_SYS_CLK_ECO_DIV2
1097:.\Generated_Source\PSoC4/CyLib.c ****         * - \ref CY_SYS_CLK_ECO_DIV4
1098:.\Generated_Source\PSoC4/CyLib.c ****         * - \ref CY_SYS_CLK_ECO_DIV8
1099:.\Generated_Source\PSoC4/CyLib.c ****         *
1100:.\Generated_Source\PSoC4/CyLib.c ****         *******************************************************************************/
1101:.\Generated_Source\PSoC4/CyLib.c ****         void CySysClkWriteEcoDiv(uint32 divider)
1102:.\Generated_Source\PSoC4/CyLib.c ****         {
1103:.\Generated_Source\PSoC4/CyLib.c ****             uint8  interruptState;
1104:.\Generated_Source\PSoC4/CyLib.c **** 
1105:.\Generated_Source\PSoC4/CyLib.c ****             if (CY_SYS_CLK_HFCLK_ECO != (CY_SYS_CLK_SELECT_REG & CY_SYS_CLK_SELECT_DIRECT_SEL_MASK)
1106:.\Generated_Source\PSoC4/CyLib.c ****             {
1107:.\Generated_Source\PSoC4/CyLib.c ****                 interruptState = CyEnterCriticalSection();
1108:.\Generated_Source\PSoC4/CyLib.c **** 
1109:.\Generated_Source\PSoC4/CyLib.c ****                 CY_SYS_CLK_XTAL_CLK_DIV_CONFIG_REG =  (divider & CY_SYS_CLK_XTAL_CLK_DIV_MASK) |
1110:.\Generated_Source\PSoC4/CyLib.c ****                                                       (CY_SYS_CLK_XTAL_CLK_DIV_CONFIG_REG & ((uint3
1111:.\Generated_Source\PSoC4/CyLib.c **** 
ARM GAS  C:\Users\SPITFI~1\AppData\Local\Temp\ccTvxQXd.s 			page 25


1112:.\Generated_Source\PSoC4/CyLib.c ****                 CyExitCriticalSection(interruptState);
1113:.\Generated_Source\PSoC4/CyLib.c ****             }
1114:.\Generated_Source\PSoC4/CyLib.c ****             else
1115:.\Generated_Source\PSoC4/CyLib.c ****             {
1116:.\Generated_Source\PSoC4/CyLib.c ****                 /* Halt CPU in debug mode if ECO sources HFCLK */
1117:.\Generated_Source\PSoC4/CyLib.c ****                 CYASSERT(0u != 0u);
1118:.\Generated_Source\PSoC4/CyLib.c ****             }
1119:.\Generated_Source\PSoC4/CyLib.c ****         }
1120:.\Generated_Source\PSoC4/CyLib.c **** 
1121:.\Generated_Source\PSoC4/CyLib.c ****     #else
1122:.\Generated_Source\PSoC4/CyLib.c **** 
1123:.\Generated_Source\PSoC4/CyLib.c ****         /*******************************************************************************
1124:.\Generated_Source\PSoC4/CyLib.c ****         * Function Name: CySysClkConfigureEcoTrim
1125:.\Generated_Source\PSoC4/CyLib.c ****         ****************************************************************************//**
1126:.\Generated_Source\PSoC4/CyLib.c ****         *
1127:.\Generated_Source\PSoC4/CyLib.c ****         * Selects trim setting values for ECO. This API is available only for PSoC
1128:.\Generated_Source\PSoC4/CyLib.c ****         * 4200L devices only.
1129:.\Generated_Source\PSoC4/CyLib.c ****         *
1130:.\Generated_Source\PSoC4/CyLib.c ****         * The following parameters can be trimmed for ECO. The affected registers are
1131:.\Generated_Source\PSoC4/CyLib.c ****         * ECO_TRIM0 and ECO_TRIM1.
1132:.\Generated_Source\PSoC4/CyLib.c ****         *
1133:.\Generated_Source\PSoC4/CyLib.c ****         * Watchdog trim - This bit field sets the error threshold below the steady
1134:.\Generated_Source\PSoC4/CyLib.c ****         * state amplitude level.
1135:.\Generated_Source\PSoC4/CyLib.c ****         *
1136:.\Generated_Source\PSoC4/CyLib.c ****         * Amplitude trim - This bit field is to set the crystal drive level when
1137:.\Generated_Source\PSoC4/CyLib.c ****         * ECO_CONFIG.AGC_EN = 1. WARNING: use care when setting this field because
1138:.\Generated_Source\PSoC4/CyLib.c ****         * driving a crystal beyond its rated limit can permanently damage the crystal.
1139:.\Generated_Source\PSoC4/CyLib.c ****         *
1140:.\Generated_Source\PSoC4/CyLib.c ****         * Filter frequency trim - This bit field sets LPF frequency trim and affects
1141:.\Generated_Source\PSoC4/CyLib.c ****         * the 3rd harmonic content.
1142:.\Generated_Source\PSoC4/CyLib.c ****         *
1143:.\Generated_Source\PSoC4/CyLib.c ****         * Feedback resistor trim - This bit field sets the feedback resistor trim and
1144:.\Generated_Source\PSoC4/CyLib.c ****         * impacts the oscillation amplitude.
1145:.\Generated_Source\PSoC4/CyLib.c ****         *
1146:.\Generated_Source\PSoC4/CyLib.c ****         * Amplifier gain trim - This bit field sets the amplifier gain trim and affects
1147:.\Generated_Source\PSoC4/CyLib.c ****         * the startup time of the crystal.
1148:.\Generated_Source\PSoC4/CyLib.c ****         *
1149:.\Generated_Source\PSoC4/CyLib.c ****         * Use care when setting the amplitude trim field because driving a crystal
1150:.\Generated_Source\PSoC4/CyLib.c ****         * beyond its rated limit can permanently damage the crystal.
1151:.\Generated_Source\PSoC4/CyLib.c ****         *
1152:.\Generated_Source\PSoC4/CyLib.c ****         * \param wDTrim: Watchdog trim
1153:.\Generated_Source\PSoC4/CyLib.c ****         * - \ref CY_SYS_CLK_ECO_WDTRIM0      Error threshold is 0.05 V
1154:.\Generated_Source\PSoC4/CyLib.c ****         * - \ref CY_SYS_CLK_ECO_WDTRIM1      Error threshold is 0.10 V
1155:.\Generated_Source\PSoC4/CyLib.c ****         * - \ref CY_SYS_CLK_ECO_WDTRIM2      Error threshold is 0.15 V
1156:.\Generated_Source\PSoC4/CyLib.c ****         * - \ref CY_SYS_CLK_ECO_WDTRIM3      Error threshold is 0.20 V
1157:.\Generated_Source\PSoC4/CyLib.c ****         *
1158:.\Generated_Source\PSoC4/CyLib.c ****         * \param aTrim: Amplitude trim
1159:.\Generated_Source\PSoC4/CyLib.c ****         * - \ref CY_SYS_CLK_ECO_ATRIM0       Amplitude is 0.3 Vpp
1160:.\Generated_Source\PSoC4/CyLib.c ****         * - \ref CY_SYS_CLK_ECO_ATRIM1       Amplitude is 0.4 Vpp
1161:.\Generated_Source\PSoC4/CyLib.c ****         * - \ref CY_SYS_CLK_ECO_ATRIM2       Amplitude is 0.5 Vpp
1162:.\Generated_Source\PSoC4/CyLib.c ****         * - \ref CY_SYS_CLK_ECO_ATRIM3       Amplitude is 0.6 Vpp
1163:.\Generated_Source\PSoC4/CyLib.c ****         * - \ref CY_SYS_CLK_ECO_ATRIM4       Amplitude is 0.7 Vpp
1164:.\Generated_Source\PSoC4/CyLib.c ****         * - \ref CY_SYS_CLK_ECO_ATRIM5       Amplitude is 0.8 Vpp
1165:.\Generated_Source\PSoC4/CyLib.c ****         * - \ref CY_SYS_CLK_ECO_ATRIM6       Amplitude is 0.9 Vpp
1166:.\Generated_Source\PSoC4/CyLib.c ****         * - \ref CY_SYS_CLK_ECO_ATRIM7       Amplitude is 1.0 Vpp
1167:.\Generated_Source\PSoC4/CyLib.c ****         *
1168:.\Generated_Source\PSoC4/CyLib.c ****         * \param fTrim: Filter frequency trim
ARM GAS  C:\Users\SPITFI~1\AppData\Local\Temp\ccTvxQXd.s 			page 26


1169:.\Generated_Source\PSoC4/CyLib.c ****         * - \ref CY_SYS_CLK_ECO_FTRIM0       Crystal frequency > 30 MHz
1170:.\Generated_Source\PSoC4/CyLib.c ****         * - \ref CY_SYS_CLK_ECO_FTRIM1       24 MHz < Crystal frequency <= 30 MHz
1171:.\Generated_Source\PSoC4/CyLib.c ****         * - \ref CY_SYS_CLK_ECO_FTRIM2       17 MHz < Crystal frequency <= 24 MHz
1172:.\Generated_Source\PSoC4/CyLib.c ****         * - \ref CY_SYS_CLK_ECO_FTRIM3       Crystal frequency <= 17 MHz
1173:.\Generated_Source\PSoC4/CyLib.c ****         *
1174:.\Generated_Source\PSoC4/CyLib.c ****         * \param rTrim: Feedback resistor trim
1175:.\Generated_Source\PSoC4/CyLib.c ****         * - \ref CY_SYS_CLK_ECO_RTRIM0       Crystal frequency > 30 MHz
1176:.\Generated_Source\PSoC4/CyLib.c ****         * - \ref CY_SYS_CLK_ECO_RTRIM1       24 MHz < Crystal frequency <= 30 MHz
1177:.\Generated_Source\PSoC4/CyLib.c ****         * - \ref CY_SYS_CLK_ECO_RTRIM2       17 MHz < Crystal frequency <= 24 MHz
1178:.\Generated_Source\PSoC4/CyLib.c ****         * - \ref CY_SYS_CLK_ECO_RTRIM3       Crystal frequency <= 17 MHz
1179:.\Generated_Source\PSoC4/CyLib.c ****         *
1180:.\Generated_Source\PSoC4/CyLib.c ****         * \param gTrim: Amplifier gain trim. Calculate the minimum required gm
1181:.\Generated_Source\PSoC4/CyLib.c ****         * (trans-conductance value). Divide the calculated gm value by 4.5 to
1182:.\Generated_Source\PSoC4/CyLib.c ****         * obtain an integer value 'result'. For more information please refer
1183:.\Generated_Source\PSoC4/CyLib.c ****         * to the device TRM.
1184:.\Generated_Source\PSoC4/CyLib.c ****         * - \ref CY_SYS_CLK_ECO_GTRIM0       If result = 1
1185:.\Generated_Source\PSoC4/CyLib.c ****         * - \ref CY_SYS_CLK_ECO_GTRIM1       If result = 0
1186:.\Generated_Source\PSoC4/CyLib.c ****         * - \ref CY_SYS_CLK_ECO_GTRIM2       If result = 2
1187:.\Generated_Source\PSoC4/CyLib.c ****         * - \ref CY_SYS_CLK_ECO_GTRIM2       If result = 3
1188:.\Generated_Source\PSoC4/CyLib.c ****         *
1189:.\Generated_Source\PSoC4/CyLib.c ****         *******************************************************************************/
1190:.\Generated_Source\PSoC4/CyLib.c ****         void CySysClkConfigureEcoTrim(uint32 wDTrim, uint32 aTrim, uint32 fTrim, uint32 rTrim, uint
1191:.\Generated_Source\PSoC4/CyLib.c ****         {
1192:.\Generated_Source\PSoC4/CyLib.c ****             uint8  interruptState;
1193:.\Generated_Source\PSoC4/CyLib.c ****             uint32 regTmp;
1194:.\Generated_Source\PSoC4/CyLib.c **** 
1195:.\Generated_Source\PSoC4/CyLib.c ****             interruptState = CyEnterCriticalSection();
1196:.\Generated_Source\PSoC4/CyLib.c **** 
1197:.\Generated_Source\PSoC4/CyLib.c ****             regTmp  = CY_SYS_CLK_ECO_TRIM0_REG & ~(CY_SYS_CLK_ECO_TRIM0_WDTRIM_MASK | CY_SYS_CLK_EC
1198:.\Generated_Source\PSoC4/CyLib.c ****             regTmp |= ((uint32) (wDTrim << CY_SYS_CLK_ECO_TRIM0_WDTRIM_SHIFT) & CY_SYS_CLK_ECO_TRIM
1199:.\Generated_Source\PSoC4/CyLib.c ****             regTmp |= ((uint32) (aTrim << CY_SYS_CLK_ECO_TRIM0_ATRIM_SHIFT) & CY_SYS_CLK_ECO_TRIM0_
1200:.\Generated_Source\PSoC4/CyLib.c ****             CY_SYS_CLK_ECO_TRIM0_REG = regTmp;
1201:.\Generated_Source\PSoC4/CyLib.c **** 
1202:.\Generated_Source\PSoC4/CyLib.c ****             regTmp  = CY_SYS_CLK_ECO_TRIM1_REG & ~(CY_SYS_CLK_ECO_TRIM1_FTRIM_MASK |
1203:.\Generated_Source\PSoC4/CyLib.c ****                                                    CY_SYS_CLK_ECO_TRIM1_RTRIM_MASK |
1204:.\Generated_Source\PSoC4/CyLib.c ****                                                    CY_SYS_CLK_ECO_TRIM1_GTRIM_MASK);
1205:.\Generated_Source\PSoC4/CyLib.c ****             regTmp |= ((uint32) (fTrim << CY_SYS_CLK_ECO_TRIM1_FTRIM_SHIFT) & CY_SYS_CLK_ECO_TRIM1_
1206:.\Generated_Source\PSoC4/CyLib.c ****             regTmp |= ((uint32) (rTrim << CY_SYS_CLK_ECO_TRIM1_RTRIM_SHIFT) & CY_SYS_CLK_ECO_TRIM1_
1207:.\Generated_Source\PSoC4/CyLib.c ****             regTmp |= ((uint32) (gTrim << CY_SYS_CLK_ECO_TRIM1_GTRIM_SHIFT) & CY_SYS_CLK_ECO_TRIM1_
1208:.\Generated_Source\PSoC4/CyLib.c **** 
1209:.\Generated_Source\PSoC4/CyLib.c ****             CY_SYS_CLK_ECO_TRIM1_REG = regTmp;
1210:.\Generated_Source\PSoC4/CyLib.c **** 
1211:.\Generated_Source\PSoC4/CyLib.c ****             CyExitCriticalSection(interruptState);
1212:.\Generated_Source\PSoC4/CyLib.c ****         }
1213:.\Generated_Source\PSoC4/CyLib.c **** 
1214:.\Generated_Source\PSoC4/CyLib.c **** 
1215:.\Generated_Source\PSoC4/CyLib.c ****         /*******************************************************************************
1216:.\Generated_Source\PSoC4/CyLib.c ****         * Function Name: CySysClkConfigureEcoDrive
1217:.\Generated_Source\PSoC4/CyLib.c ****         ****************************************************************************//**
1218:.\Generated_Source\PSoC4/CyLib.c ****         *
1219:.\Generated_Source\PSoC4/CyLib.c ****         * Selects trim setting values for ECO based on crystal parameters. Use care
1220:.\Generated_Source\PSoC4/CyLib.c ****         * when setting the driveLevel parameter because driving a crystal beyond its
1221:.\Generated_Source\PSoC4/CyLib.c ****         * rated limit can permanently damage the crystal.
1222:.\Generated_Source\PSoC4/CyLib.c ****         *
1223:.\Generated_Source\PSoC4/CyLib.c ****         * This API is available only for PSoC 4200L devices only.
1224:.\Generated_Source\PSoC4/CyLib.c ****         *
1225:.\Generated_Source\PSoC4/CyLib.c ****         * \param freq Frequency of the crystal in kHz.
ARM GAS  C:\Users\SPITFI~1\AppData\Local\Temp\ccTvxQXd.s 			page 27


1226:.\Generated_Source\PSoC4/CyLib.c ****         * \param cLoad Crystal load capacitance in pF.
1227:.\Generated_Source\PSoC4/CyLib.c ****         * \param esr Equivalent series resistance of the crystal in ohm.
1228:.\Generated_Source\PSoC4/CyLib.c ****         *  maxAmplitude: maximum amplitude level in mV. Calculate as
1229:.\Generated_Source\PSoC4/CyLib.c ****         *  ((sqrt(driveLevel in uW / 2 / esr))/(3.14 * freq * cLoad)) * 10^9.
1230:.\Generated_Source\PSoC4/CyLib.c ****         *
1231:.\Generated_Source\PSoC4/CyLib.c ****         *  The Automatic Gain Control (AGC) is disabled when the specified maximum
1232:.\Generated_Source\PSoC4/CyLib.c ****         *  amplitude level equals or above 2. In this case the amplitude is not
1233:.\Generated_Source\PSoC4/CyLib.c ****         *  explicitly controlled and will grow until it saturates to the supply rail
1234:.\Generated_Source\PSoC4/CyLib.c ****         *  (1.8V nom). WARNING: use care when disabling AGC because driving a crystal
1235:.\Generated_Source\PSoC4/CyLib.c ****         *  beyond its rated limit can permanently damage the crystal.
1236:.\Generated_Source\PSoC4/CyLib.c ****         *
1237:.\Generated_Source\PSoC4/CyLib.c ****         * \return \ref CYRET_SUCCESS ECO configuration completed successfully.
1238:.\Generated_Source\PSoC4/CyLib.c ****         * \return \ref CYRET_BAD_PARAM One or more invalid parameters.
1239:.\Generated_Source\PSoC4/CyLib.c ****         *
1240:.\Generated_Source\PSoC4/CyLib.c ****         *******************************************************************************/
1241:.\Generated_Source\PSoC4/CyLib.c ****         cystatus CySysClkConfigureEcoDrive(uint32 freq, uint32 cLoad, uint32 esr, uint32 maxAmplitu
1242:.\Generated_Source\PSoC4/CyLib.c ****         {
1243:.\Generated_Source\PSoC4/CyLib.c ****             cystatus returnStatus = CYRET_SUCCESS;
1244:.\Generated_Source\PSoC4/CyLib.c **** 
1245:.\Generated_Source\PSoC4/CyLib.c ****             uint32 wDTrim;
1246:.\Generated_Source\PSoC4/CyLib.c ****             uint32 aTrim;
1247:.\Generated_Source\PSoC4/CyLib.c ****             uint32 fTrim;
1248:.\Generated_Source\PSoC4/CyLib.c ****             uint32 rTrim;
1249:.\Generated_Source\PSoC4/CyLib.c ****             uint32 gTrim;
1250:.\Generated_Source\PSoC4/CyLib.c **** 
1251:.\Generated_Source\PSoC4/CyLib.c ****             uint32 gmMin;
1252:.\Generated_Source\PSoC4/CyLib.c **** 
1253:.\Generated_Source\PSoC4/CyLib.c **** 
1254:.\Generated_Source\PSoC4/CyLib.c ****             if ((maxAmplitude < CY_SYS_CLK_ECO_MAX_AMPL_MIN_mV) ||
1255:.\Generated_Source\PSoC4/CyLib.c ****                 (freq < CY_SYS_CLK_ECO_FREQ_KHZ_MIN) || (freq > CY_SYS_CLK_ECO_FREQ_KHZ_MAX))
1256:.\Generated_Source\PSoC4/CyLib.c ****             {
1257:.\Generated_Source\PSoC4/CyLib.c ****                 returnStatus = CYRET_BAD_PARAM;
1258:.\Generated_Source\PSoC4/CyLib.c ****             }
1259:.\Generated_Source\PSoC4/CyLib.c ****             else
1260:.\Generated_Source\PSoC4/CyLib.c ****             {
1261:.\Generated_Source\PSoC4/CyLib.c ****                 /* Calculate amplitude trim */
1262:.\Generated_Source\PSoC4/CyLib.c ****                 aTrim = (maxAmplitude < CY_SYS_CLK_ECO_TRIM_BOUNDARY) ? ((maxAmplitude/100u) - 4u) 
1263:.\Generated_Source\PSoC4/CyLib.c **** 
1264:.\Generated_Source\PSoC4/CyLib.c ****                 if (maxAmplitude < CY_SYS_CLK_ECO_AMPL_FOR_ATRIM0)
1265:.\Generated_Source\PSoC4/CyLib.c ****                 {
1266:.\Generated_Source\PSoC4/CyLib.c ****                     aTrim = CY_SYS_CLK_ECO_ATRIM0;
1267:.\Generated_Source\PSoC4/CyLib.c ****                 }
1268:.\Generated_Source\PSoC4/CyLib.c ****                 else if (maxAmplitude < CY_SYS_CLK_ECO_AMPL_FOR_ATRIM1)
1269:.\Generated_Source\PSoC4/CyLib.c ****                 {
1270:.\Generated_Source\PSoC4/CyLib.c ****                     aTrim = CY_SYS_CLK_ECO_ATRIM1;
1271:.\Generated_Source\PSoC4/CyLib.c ****                 }
1272:.\Generated_Source\PSoC4/CyLib.c ****                 else if (maxAmplitude < CY_SYS_CLK_ECO_AMPL_FOR_ATRIM2)
1273:.\Generated_Source\PSoC4/CyLib.c ****                 {
1274:.\Generated_Source\PSoC4/CyLib.c ****                     aTrim = CY_SYS_CLK_ECO_ATRIM2;
1275:.\Generated_Source\PSoC4/CyLib.c ****                 }
1276:.\Generated_Source\PSoC4/CyLib.c ****                 else if (maxAmplitude < CY_SYS_CLK_ECO_AMPL_FOR_ATRIM3)
1277:.\Generated_Source\PSoC4/CyLib.c ****                 {
1278:.\Generated_Source\PSoC4/CyLib.c ****                     aTrim = CY_SYS_CLK_ECO_ATRIM3;
1279:.\Generated_Source\PSoC4/CyLib.c ****                 }
1280:.\Generated_Source\PSoC4/CyLib.c ****                 else if (maxAmplitude < CY_SYS_CLK_ECO_AMPL_FOR_ATRIM4)
1281:.\Generated_Source\PSoC4/CyLib.c ****                 {
1282:.\Generated_Source\PSoC4/CyLib.c ****                     aTrim = CY_SYS_CLK_ECO_ATRIM4;
ARM GAS  C:\Users\SPITFI~1\AppData\Local\Temp\ccTvxQXd.s 			page 28


1283:.\Generated_Source\PSoC4/CyLib.c ****                 }
1284:.\Generated_Source\PSoC4/CyLib.c ****                 else if (maxAmplitude < CY_SYS_CLK_ECO_AMPL_FOR_ATRIM5)
1285:.\Generated_Source\PSoC4/CyLib.c ****                 {
1286:.\Generated_Source\PSoC4/CyLib.c ****                     aTrim = CY_SYS_CLK_ECO_ATRIM5;
1287:.\Generated_Source\PSoC4/CyLib.c ****                 }
1288:.\Generated_Source\PSoC4/CyLib.c ****                 else if (maxAmplitude < CY_SYS_CLK_ECO_AMPL_FOR_ATRIM6)
1289:.\Generated_Source\PSoC4/CyLib.c ****                 {
1290:.\Generated_Source\PSoC4/CyLib.c ****                     aTrim = CY_SYS_CLK_ECO_ATRIM6;
1291:.\Generated_Source\PSoC4/CyLib.c ****                 }
1292:.\Generated_Source\PSoC4/CyLib.c ****                 else
1293:.\Generated_Source\PSoC4/CyLib.c ****                 {
1294:.\Generated_Source\PSoC4/CyLib.c ****                     aTrim = CY_SYS_CLK_ECO_ATRIM7;
1295:.\Generated_Source\PSoC4/CyLib.c ****                 }
1296:.\Generated_Source\PSoC4/CyLib.c **** 
1297:.\Generated_Source\PSoC4/CyLib.c ****                 /* Calculate Watchdog trim. */
1298:.\Generated_Source\PSoC4/CyLib.c ****                 wDTrim = (maxAmplitude < CY_SYS_CLK_ECO_TRIM_BOUNDARY) ? ((maxAmplitude/200u) - 2u)
1299:.\Generated_Source\PSoC4/CyLib.c **** 
1300:.\Generated_Source\PSoC4/CyLib.c ****                 /* Calculate amplifier gain trim. */
1301:.\Generated_Source\PSoC4/CyLib.c ****                 gmMin = (uint32) (((((CY_SYS_CLK_ECO_GMMIN_COEFFICIENT * freq * cLoad) / 1000) * ((
1302:.\Generated_Source\PSoC4/CyLib.c ****                 if (gmMin > 3u)
1303:.\Generated_Source\PSoC4/CyLib.c ****                 {
1304:.\Generated_Source\PSoC4/CyLib.c ****                     returnStatus = CYRET_BAD_PARAM;
1305:.\Generated_Source\PSoC4/CyLib.c ****                     gTrim = 0u;
1306:.\Generated_Source\PSoC4/CyLib.c ****                 }
1307:.\Generated_Source\PSoC4/CyLib.c ****                 else if (gmMin > 1u)
1308:.\Generated_Source\PSoC4/CyLib.c ****                 {
1309:.\Generated_Source\PSoC4/CyLib.c ****                     gTrim = gmMin;
1310:.\Generated_Source\PSoC4/CyLib.c ****                 }
1311:.\Generated_Source\PSoC4/CyLib.c ****                 else
1312:.\Generated_Source\PSoC4/CyLib.c ****                 {
1313:.\Generated_Source\PSoC4/CyLib.c ****                     gTrim = (gmMin == 1u) ? 0u : 1u;
1314:.\Generated_Source\PSoC4/CyLib.c ****                 }
1315:.\Generated_Source\PSoC4/CyLib.c **** 
1316:.\Generated_Source\PSoC4/CyLib.c ****                 /* Calculate feedback resistor trim */
1317:.\Generated_Source\PSoC4/CyLib.c ****                 if (freq > CY_SYS_CLK_ECO_FREQ_FOR_FTRIM0)
1318:.\Generated_Source\PSoC4/CyLib.c ****                 {
1319:.\Generated_Source\PSoC4/CyLib.c ****                     rTrim = CY_SYS_CLK_ECO_FTRIM0;
1320:.\Generated_Source\PSoC4/CyLib.c ****                 }
1321:.\Generated_Source\PSoC4/CyLib.c ****                 else if (freq > CY_SYS_CLK_ECO_FREQ_FOR_FTRIM1)
1322:.\Generated_Source\PSoC4/CyLib.c ****                 {
1323:.\Generated_Source\PSoC4/CyLib.c ****                     rTrim = CY_SYS_CLK_ECO_FTRIM1;
1324:.\Generated_Source\PSoC4/CyLib.c ****                 }
1325:.\Generated_Source\PSoC4/CyLib.c ****                 else if (freq > CY_SYS_CLK_ECO_FREQ_FOR_FTRIM2)
1326:.\Generated_Source\PSoC4/CyLib.c ****                 {
1327:.\Generated_Source\PSoC4/CyLib.c ****                     rTrim = CY_SYS_CLK_ECO_FTRIM2;
1328:.\Generated_Source\PSoC4/CyLib.c ****                 }
1329:.\Generated_Source\PSoC4/CyLib.c ****                 else
1330:.\Generated_Source\PSoC4/CyLib.c ****                 {
1331:.\Generated_Source\PSoC4/CyLib.c ****                     rTrim = CY_SYS_CLK_ECO_FTRIM3;
1332:.\Generated_Source\PSoC4/CyLib.c ****                 }
1333:.\Generated_Source\PSoC4/CyLib.c **** 
1334:.\Generated_Source\PSoC4/CyLib.c ****                 /* Calculate filter frequency trim */
1335:.\Generated_Source\PSoC4/CyLib.c ****                 fTrim = rTrim;
1336:.\Generated_Source\PSoC4/CyLib.c **** 
1337:.\Generated_Source\PSoC4/CyLib.c ****                 CySysClkConfigureEcoTrim(wDTrim, aTrim, fTrim, rTrim, gTrim);
1338:.\Generated_Source\PSoC4/CyLib.c **** 
1339:.\Generated_Source\PSoC4/CyLib.c ****                 /* Automatic Gain Control (AGC) enable */
ARM GAS  C:\Users\SPITFI~1\AppData\Local\Temp\ccTvxQXd.s 			page 29


1340:.\Generated_Source\PSoC4/CyLib.c ****                 if (maxAmplitude < 2u)
1341:.\Generated_Source\PSoC4/CyLib.c ****                 {
1342:.\Generated_Source\PSoC4/CyLib.c ****                     /* The oscillation amplitude is controlled to the level selected by amplitude t
1343:.\Generated_Source\PSoC4/CyLib.c ****                     CY_SYS_CLK_ECO_CONFIG_REG |= CY_SYS_CLK_ECO_CONFIG_AGC_EN;
1344:.\Generated_Source\PSoC4/CyLib.c ****                 }
1345:.\Generated_Source\PSoC4/CyLib.c ****                 else
1346:.\Generated_Source\PSoC4/CyLib.c ****                 {
1347:.\Generated_Source\PSoC4/CyLib.c ****                     /* The amplitude is not explicitly controlled and will grow until it saturates 
1348:.\Generated_Source\PSoC4/CyLib.c ****                     * supply rail (1.8V nom).
1349:.\Generated_Source\PSoC4/CyLib.c ****                     */
1350:.\Generated_Source\PSoC4/CyLib.c ****                     CY_SYS_CLK_ECO_CONFIG_REG &= (uint32) ~CY_SYS_CLK_ECO_CONFIG_AGC_EN;
1351:.\Generated_Source\PSoC4/CyLib.c ****                 }
1352:.\Generated_Source\PSoC4/CyLib.c ****             }
1353:.\Generated_Source\PSoC4/CyLib.c **** 
1354:.\Generated_Source\PSoC4/CyLib.c ****             return (returnStatus);
1355:.\Generated_Source\PSoC4/CyLib.c ****         }
1356:.\Generated_Source\PSoC4/CyLib.c **** 
1357:.\Generated_Source\PSoC4/CyLib.c ****     #endif /* CY_IP_ECO_BLESS */
1358:.\Generated_Source\PSoC4/CyLib.c **** 
1359:.\Generated_Source\PSoC4/CyLib.c **** #endif /* (CY_IP_ECO) */
1360:.\Generated_Source\PSoC4/CyLib.c **** 
1361:.\Generated_Source\PSoC4/CyLib.c **** 
1362:.\Generated_Source\PSoC4/CyLib.c **** #if (CY_IP_SRSSV2 && CY_IP_PLL)
1363:.\Generated_Source\PSoC4/CyLib.c ****     /*******************************************************************************
1364:.\Generated_Source\PSoC4/CyLib.c ****     * Function Name: CySysClkPllStart
1365:.\Generated_Source\PSoC4/CyLib.c ****     ****************************************************************************//**
1366:.\Generated_Source\PSoC4/CyLib.c ****     *
1367:.\Generated_Source\PSoC4/CyLib.c ****     * Enables the PLL. Optionally waits for it to become stable. Waits at least
1368:.\Generated_Source\PSoC4/CyLib.c ****     * 250 us or until it is detected that the PLL is stable.
1369:.\Generated_Source\PSoC4/CyLib.c ****     *
1370:.\Generated_Source\PSoC4/CyLib.c ****     * Clears the unlock occurred status bit by calling CySysClkPllGetUnlockStatus(),
1371:.\Generated_Source\PSoC4/CyLib.c ****     * once the PLL is locked if the wait parameter is 1).
1372:.\Generated_Source\PSoC4/CyLib.c ****     *
1373:.\Generated_Source\PSoC4/CyLib.c ****     * This API is available only for PSoC 4200L devices.
1374:.\Generated_Source\PSoC4/CyLib.c ****     *
1375:.\Generated_Source\PSoC4/CyLib.c ****     * \param PLL:
1376:.\Generated_Source\PSoC4/CyLib.c ****     * 0   PLL#0
1377:.\Generated_Source\PSoC4/CyLib.c ****     * 1   PLL#1
1378:.\Generated_Source\PSoC4/CyLib.c ****     *
1379:.\Generated_Source\PSoC4/CyLib.c ****     * \param wait:
1380:.\Generated_Source\PSoC4/CyLib.c ****     * 0 - Return immediately after configuration.
1381:.\Generated_Source\PSoC4/CyLib.c ****     * 1 - Wait for PLL lock or timeout. This API shall use the CyDelayUs() to
1382:.\Generated_Source\PSoC4/CyLib.c ****     * implement the timeout feature.
1383:.\Generated_Source\PSoC4/CyLib.c ****     *
1384:.\Generated_Source\PSoC4/CyLib.c ****     * \return CYRET_SUCCESS Completed successfully.
1385:.\Generated_Source\PSoC4/CyLib.c ****     * \return CYRET_TIMEOUT The timeout occurred without detecting a stable clock.
1386:.\Generated_Source\PSoC4/CyLib.c ****     * If the input source of the clock is jittery, then the lock indication may
1387:.\Generated_Source\PSoC4/CyLib.c ****     * not occur. However, after the timeout has expired, the generated PLL clock can
1388:.\Generated_Source\PSoC4/CyLib.c ****     * still be used.
1389:.\Generated_Source\PSoC4/CyLib.c ****     * \return CYRET_BAD_PARAM - Either the PLL or wait parameter is invalid.
1390:.\Generated_Source\PSoC4/CyLib.c ****     *
1391:.\Generated_Source\PSoC4/CyLib.c ****     *******************************************************************************/
1392:.\Generated_Source\PSoC4/CyLib.c ****     cystatus CySysClkPllStart(uint32 pll, uint32 wait)
1393:.\Generated_Source\PSoC4/CyLib.c ****     {
1394:.\Generated_Source\PSoC4/CyLib.c ****         uint32 counts = CY_SYS_CLK_PLL_MAX_STARTUP_US;
1395:.\Generated_Source\PSoC4/CyLib.c ****         uint8  interruptState;
1396:.\Generated_Source\PSoC4/CyLib.c ****         cystatus returnStatus = CYRET_SUCCESS;
ARM GAS  C:\Users\SPITFI~1\AppData\Local\Temp\ccTvxQXd.s 			page 30


1397:.\Generated_Source\PSoC4/CyLib.c **** 
1398:.\Generated_Source\PSoC4/CyLib.c ****         if((pll < CY_IP_PLL_NR) && (wait <= 1u))
1399:.\Generated_Source\PSoC4/CyLib.c ****         {
1400:.\Generated_Source\PSoC4/CyLib.c ****             interruptState = CyEnterCriticalSection();
1401:.\Generated_Source\PSoC4/CyLib.c **** 
1402:.\Generated_Source\PSoC4/CyLib.c ****             /* Isolate PLL outputs */
1403:.\Generated_Source\PSoC4/CyLib.c ****             CY_SYS_CLK_PLL_BASE.pll[pll].config &= (uint32) ~CY_SYS_CLK_PLL_CONFIG_ISOLATE;
1404:.\Generated_Source\PSoC4/CyLib.c **** 
1405:.\Generated_Source\PSoC4/CyLib.c ****             /* Enable PLL */
1406:.\Generated_Source\PSoC4/CyLib.c ****             CY_SYS_CLK_PLL_BASE.pll[pll].config |= CY_SYS_CLK_PLL_CONFIG_ENABLE;
1407:.\Generated_Source\PSoC4/CyLib.c **** 
1408:.\Generated_Source\PSoC4/CyLib.c ****             CyExitCriticalSection(interruptState);
1409:.\Generated_Source\PSoC4/CyLib.c **** 
1410:.\Generated_Source\PSoC4/CyLib.c ****             /* De-isolate >= CY_SYS_CLK_PLL_MIN_STARTUP_US after PLL enabled */
1411:.\Generated_Source\PSoC4/CyLib.c ****             CyDelayUs(CY_SYS_CLK_PLL_MIN_STARTUP_US);
1412:.\Generated_Source\PSoC4/CyLib.c ****             interruptState = CyEnterCriticalSection();
1413:.\Generated_Source\PSoC4/CyLib.c ****             CY_SYS_CLK_PLL_BASE.pll[pll].config |= CY_SYS_CLK_PLL_CONFIG_ISOLATE;
1414:.\Generated_Source\PSoC4/CyLib.c ****             CyExitCriticalSection(interruptState);
1415:.\Generated_Source\PSoC4/CyLib.c **** 
1416:.\Generated_Source\PSoC4/CyLib.c ****             if(wait != 0u)
1417:.\Generated_Source\PSoC4/CyLib.c ****             {
1418:.\Generated_Source\PSoC4/CyLib.c ****                 returnStatus = CYRET_TIMEOUT;
1419:.\Generated_Source\PSoC4/CyLib.c **** 
1420:.\Generated_Source\PSoC4/CyLib.c ****                 while(0u != counts)
1421:.\Generated_Source\PSoC4/CyLib.c ****                 {
1422:.\Generated_Source\PSoC4/CyLib.c **** 
1423:.\Generated_Source\PSoC4/CyLib.c ****                     if(0u != CySysClkPllGetLockStatus(pll))
1424:.\Generated_Source\PSoC4/CyLib.c ****                     {
1425:.\Generated_Source\PSoC4/CyLib.c ****                         returnStatus = CYRET_SUCCESS;
1426:.\Generated_Source\PSoC4/CyLib.c ****                         (void) CySysClkPllGetUnlockStatus(pll);
1427:.\Generated_Source\PSoC4/CyLib.c ****                         break;
1428:.\Generated_Source\PSoC4/CyLib.c ****                     }
1429:.\Generated_Source\PSoC4/CyLib.c **** 
1430:.\Generated_Source\PSoC4/CyLib.c ****                     CyDelayUs(1u);
1431:.\Generated_Source\PSoC4/CyLib.c ****                     counts--;
1432:.\Generated_Source\PSoC4/CyLib.c ****                 }
1433:.\Generated_Source\PSoC4/CyLib.c ****             }
1434:.\Generated_Source\PSoC4/CyLib.c ****         }
1435:.\Generated_Source\PSoC4/CyLib.c ****         else
1436:.\Generated_Source\PSoC4/CyLib.c ****         {
1437:.\Generated_Source\PSoC4/CyLib.c ****             returnStatus = CYRET_BAD_PARAM;
1438:.\Generated_Source\PSoC4/CyLib.c ****         }
1439:.\Generated_Source\PSoC4/CyLib.c **** 
1440:.\Generated_Source\PSoC4/CyLib.c ****         return (returnStatus);
1441:.\Generated_Source\PSoC4/CyLib.c ****     }
1442:.\Generated_Source\PSoC4/CyLib.c **** 
1443:.\Generated_Source\PSoC4/CyLib.c **** 
1444:.\Generated_Source\PSoC4/CyLib.c ****     /*******************************************************************************
1445:.\Generated_Source\PSoC4/CyLib.c ****     * Function Name: CySysClkPllGetLockStatus
1446:.\Generated_Source\PSoC4/CyLib.c ****     ****************************************************************************//**
1447:.\Generated_Source\PSoC4/CyLib.c ****     *
1448:.\Generated_Source\PSoC4/CyLib.c ****     * Returns non-zero if the output of the specified PLL output is locked.
1449:.\Generated_Source\PSoC4/CyLib.c ****     *
1450:.\Generated_Source\PSoC4/CyLib.c ****     * This API is available only for PSoC 4200L devices.
1451:.\Generated_Source\PSoC4/CyLib.c ****     *
1452:.\Generated_Source\PSoC4/CyLib.c ****     * PLL:
1453:.\Generated_Source\PSoC4/CyLib.c ****     *  0   PLL#0
ARM GAS  C:\Users\SPITFI~1\AppData\Local\Temp\ccTvxQXd.s 			page 31


1454:.\Generated_Source\PSoC4/CyLib.c ****     *  1   PLL#1
1455:.\Generated_Source\PSoC4/CyLib.c ****     *
1456:.\Generated_Source\PSoC4/CyLib.c ****     * \return A non-zero value when the specified PLL is locked.
1457:.\Generated_Source\PSoC4/CyLib.c ****     *
1458:.\Generated_Source\PSoC4/CyLib.c ****     *******************************************************************************/
1459:.\Generated_Source\PSoC4/CyLib.c ****     uint32 CySysClkPllGetLockStatus(uint32 pll)
1460:.\Generated_Source\PSoC4/CyLib.c ****     {
1461:.\Generated_Source\PSoC4/CyLib.c ****         uint8  interruptState;
1462:.\Generated_Source\PSoC4/CyLib.c ****         uint32 returnStatus;
1463:.\Generated_Source\PSoC4/CyLib.c **** 
1464:.\Generated_Source\PSoC4/CyLib.c ****         CYASSERT(pll < CY_IP_PLL_NR);
1465:.\Generated_Source\PSoC4/CyLib.c **** 
1466:.\Generated_Source\PSoC4/CyLib.c ****         interruptState = CyEnterCriticalSection();
1467:.\Generated_Source\PSoC4/CyLib.c **** 
1468:.\Generated_Source\PSoC4/CyLib.c ****         /* PLL is locked if reported so for two consecutive read. */
1469:.\Generated_Source\PSoC4/CyLib.c ****         returnStatus = CY_SYS_CLK_PLL_BASE.pll[pll].status & CY_SYS_CLK_PLL_STATUS_LOCKED;
1470:.\Generated_Source\PSoC4/CyLib.c ****         if(0u != returnStatus)
1471:.\Generated_Source\PSoC4/CyLib.c ****         {
1472:.\Generated_Source\PSoC4/CyLib.c ****             returnStatus = CY_SYS_CLK_PLL_BASE.pll[pll].status & CY_SYS_CLK_PLL_STATUS_LOCKED;
1473:.\Generated_Source\PSoC4/CyLib.c ****         }
1474:.\Generated_Source\PSoC4/CyLib.c **** 
1475:.\Generated_Source\PSoC4/CyLib.c ****         CyExitCriticalSection(interruptState);
1476:.\Generated_Source\PSoC4/CyLib.c **** 
1477:.\Generated_Source\PSoC4/CyLib.c ****         return (returnStatus);
1478:.\Generated_Source\PSoC4/CyLib.c ****     }
1479:.\Generated_Source\PSoC4/CyLib.c **** 
1480:.\Generated_Source\PSoC4/CyLib.c ****     /*******************************************************************************
1481:.\Generated_Source\PSoC4/CyLib.c ****     * Function Name: CySysClkPllStop
1482:.\Generated_Source\PSoC4/CyLib.c ****     ****************************************************************************//**
1483:.\Generated_Source\PSoC4/CyLib.c ****     *
1484:.\Generated_Source\PSoC4/CyLib.c ****     * Disables the PLL.
1485:.\Generated_Source\PSoC4/CyLib.c ****     *
1486:.\Generated_Source\PSoC4/CyLib.c ****     * Ensures that either PLL is not the source of HFCLK before it is disabled,
1487:.\Generated_Source\PSoC4/CyLib.c ****     * otherwise, the CPU will halt.
1488:.\Generated_Source\PSoC4/CyLib.c ****     *
1489:.\Generated_Source\PSoC4/CyLib.c ****     * This API is available only for PSoC 4200L devices.
1490:.\Generated_Source\PSoC4/CyLib.c ****     *
1491:.\Generated_Source\PSoC4/CyLib.c ****     * PLL:
1492:.\Generated_Source\PSoC4/CyLib.c ****     *  0   PLL#0
1493:.\Generated_Source\PSoC4/CyLib.c ****     *  1   PLL#1
1494:.\Generated_Source\PSoC4/CyLib.c ****     *
1495:.\Generated_Source\PSoC4/CyLib.c ****     *******************************************************************************/
1496:.\Generated_Source\PSoC4/CyLib.c ****     void CySysClkPllStop(uint32 pll)
1497:.\Generated_Source\PSoC4/CyLib.c ****     {
1498:.\Generated_Source\PSoC4/CyLib.c ****         uint8  interruptState;
1499:.\Generated_Source\PSoC4/CyLib.c **** 
1500:.\Generated_Source\PSoC4/CyLib.c ****         if (pll < CY_IP_PLL_NR)
1501:.\Generated_Source\PSoC4/CyLib.c ****         {
1502:.\Generated_Source\PSoC4/CyLib.c ****             interruptState = CyEnterCriticalSection();
1503:.\Generated_Source\PSoC4/CyLib.c ****             CY_SYS_CLK_PLL_BASE.pll[pll].config &= (uint32) ~(CY_SYS_CLK_PLL_CONFIG_ISOLATE | CY_SY
1504:.\Generated_Source\PSoC4/CyLib.c ****             CyExitCriticalSection(interruptState);
1505:.\Generated_Source\PSoC4/CyLib.c ****         }
1506:.\Generated_Source\PSoC4/CyLib.c ****     }
1507:.\Generated_Source\PSoC4/CyLib.c **** 
1508:.\Generated_Source\PSoC4/CyLib.c **** 
1509:.\Generated_Source\PSoC4/CyLib.c ****     /*******************************************************************************
1510:.\Generated_Source\PSoC4/CyLib.c ****     * Function Name: CySysClkPllSetPQ
ARM GAS  C:\Users\SPITFI~1\AppData\Local\Temp\ccTvxQXd.s 			page 32


1511:.\Generated_Source\PSoC4/CyLib.c ****     ****************************************************************************//**
1512:.\Generated_Source\PSoC4/CyLib.c ****     *
1513:.\Generated_Source\PSoC4/CyLib.c ****     * Sets feedback (P) and reference the (Q) divider value. This API also sets the
1514:.\Generated_Source\PSoC4/CyLib.c ****     * programmable charge pump current value. Note that the PLL has to be disabled
1515:.\Generated_Source\PSoC4/CyLib.c ****     * before calling this API. If this function is called while any PLL is sourcing,
1516:.\Generated_Source\PSoC4/CyLib.c ****     * the SYSCLK will return an error.
1517:.\Generated_Source\PSoC4/CyLib.c ****     *
1518:.\Generated_Source\PSoC4/CyLib.c ****     * The PLL must not be the system clock source when calling this function. The
1519:.\Generated_Source\PSoC4/CyLib.c ****     * PLL output will glitch during this function call.
1520:.\Generated_Source\PSoC4/CyLib.c ****     *
1521:.\Generated_Source\PSoC4/CyLib.c ****     * This API is available only for PSoC 4200L devices.
1522:.\Generated_Source\PSoC4/CyLib.c ****     *
1523:.\Generated_Source\PSoC4/CyLib.c ****     * \param PLL:
1524:.\Generated_Source\PSoC4/CyLib.c ****     *  0   PLL#0
1525:.\Generated_Source\PSoC4/CyLib.c ****     *  1   PLL#1
1526:.\Generated_Source\PSoC4/CyLib.c ****     *
1527:.\Generated_Source\PSoC4/CyLib.c ****     * \param feedback The P divider. Range 4 - 259. Control bits for the feedback
1528:.\Generated_Source\PSoC4/CyLib.c ****     * divider.
1529:.\Generated_Source\PSoC4/CyLib.c ****     *
1530:.\Generated_Source\PSoC4/CyLib.c ****     * \param reference The Q divider. Range 1 - 64. Divide by the reference.
1531:.\Generated_Source\PSoC4/CyLib.c ****     *
1532:.\Generated_Source\PSoC4/CyLib.c ****     * \param current Charge the pump current in uA. The 2 uA for output frequencies
1533:.\Generated_Source\PSoC4/CyLib.c ****     * of 67 MHz or less, and 3 uA for higher output frequencies. The default
1534:.\Generated_Source\PSoC4/CyLib.c ****     * value is 2 uA.
1535:.\Generated_Source\PSoC4/CyLib.c ****     *
1536:.\Generated_Source\PSoC4/CyLib.c ****     * \return CYRET_SUCCESS Completed successfully.
1537:.\Generated_Source\PSoC4/CyLib.c ****     * \return CYRET_BAD_PARAM The parameters are out of range or the specified PLL
1538:.\Generated_Source\PSoC4/CyLib.c ****     * sources the system clock.
1539:.\Generated_Source\PSoC4/CyLib.c ****     *
1540:.\Generated_Source\PSoC4/CyLib.c ****     *******************************************************************************/
1541:.\Generated_Source\PSoC4/CyLib.c ****     cystatus CySysClkPllSetPQ(uint32 pll, uint32 feedback, uint32 reference, uint32 current)
1542:.\Generated_Source\PSoC4/CyLib.c ****     {
1543:.\Generated_Source\PSoC4/CyLib.c ****         uint32   regTmp;
1544:.\Generated_Source\PSoC4/CyLib.c ****         cystatus tmp;
1545:.\Generated_Source\PSoC4/CyLib.c ****         uint8    interruptState;
1546:.\Generated_Source\PSoC4/CyLib.c ****         cystatus returnStatus = CYRET_BAD_PARAM;
1547:.\Generated_Source\PSoC4/CyLib.c **** 
1548:.\Generated_Source\PSoC4/CyLib.c ****         interruptState = CyEnterCriticalSection();
1549:.\Generated_Source\PSoC4/CyLib.c **** 
1550:.\Generated_Source\PSoC4/CyLib.c ****         tmp = CySysClkPllConfigChangeAllowed(pll);
1551:.\Generated_Source\PSoC4/CyLib.c **** 
1552:.\Generated_Source\PSoC4/CyLib.c ****         if ((pll < CY_IP_PLL_NR) &&
1553:.\Generated_Source\PSoC4/CyLib.c ****             (feedback  >= CY_SYS_CLK_PLL_CONFIG_FEEDBACK_DIV_MIN)  && (feedback  <= CY_SYS_CLK_PLL_
1554:.\Generated_Source\PSoC4/CyLib.c ****             (reference >= CY_SYS_CLK_PLL_CONFIG_REFERENCE_DIV_MIN) && (reference <= CY_SYS_CLK_PLL_
1555:.\Generated_Source\PSoC4/CyLib.c ****             (current   >= CY_SYS_CLK_PLL_CONFIG_ICP_SEL_MIN )      && (current   <= CY_SYS_CLK_PLL_
1556:.\Generated_Source\PSoC4/CyLib.c ****             (CYRET_SUCCESS == tmp))
1557:.\Generated_Source\PSoC4/CyLib.c ****         {
1558:.\Generated_Source\PSoC4/CyLib.c ****             /* Set new feedback, reference and current values */
1559:.\Generated_Source\PSoC4/CyLib.c ****             regTmp  = CY_SYS_CLK_PLL_BASE.pll[pll].config & (uint32) ~(CY_SYS_CLK_PLL_CONFIG_FEEDBA
1560:.\Generated_Source\PSoC4/CyLib.c ****                                                                        CY_SYS_CLK_PLL_CONFIG_REFERE
1561:.\Generated_Source\PSoC4/CyLib.c ****                                                                        CY_SYS_CLK_PLL_CONFIG_ICP_SE
1562:.\Generated_Source\PSoC4/CyLib.c **** 
1563:.\Generated_Source\PSoC4/CyLib.c ****             regTmp |= ((feedback << CY_SYS_CLK_PLL_CONFIG_FEEDBACK_DIV_SHIFT) & CY_SYS_CLK_PLL_CONF
1564:.\Generated_Source\PSoC4/CyLib.c ****             regTmp |= (((reference - 1u) << CY_SYS_CLK_PLL_CONFIG_REFERENCE_DIV_SHIFT) & CY_SYS_CLK
1565:.\Generated_Source\PSoC4/CyLib.c ****             regTmp |= ((current << CY_SYS_CLK_PLL_CONFIG_ICP_SEL_SHIFT) & CY_SYS_CLK_PLL_CONFIG_ICP
1566:.\Generated_Source\PSoC4/CyLib.c **** 
1567:.\Generated_Source\PSoC4/CyLib.c ****             CY_SYS_CLK_PLL_BASE.pll[pll].config = regTmp;
ARM GAS  C:\Users\SPITFI~1\AppData\Local\Temp\ccTvxQXd.s 			page 33


1568:.\Generated_Source\PSoC4/CyLib.c **** 
1569:.\Generated_Source\PSoC4/CyLib.c ****             returnStatus = CYRET_SUCCESS;
1570:.\Generated_Source\PSoC4/CyLib.c ****         }
1571:.\Generated_Source\PSoC4/CyLib.c **** 
1572:.\Generated_Source\PSoC4/CyLib.c ****         CyExitCriticalSection(interruptState);
1573:.\Generated_Source\PSoC4/CyLib.c **** 
1574:.\Generated_Source\PSoC4/CyLib.c ****         return (returnStatus);
1575:.\Generated_Source\PSoC4/CyLib.c ****     }
1576:.\Generated_Source\PSoC4/CyLib.c **** 
1577:.\Generated_Source\PSoC4/CyLib.c **** 
1578:.\Generated_Source\PSoC4/CyLib.c ****     /*******************************************************************************
1579:.\Generated_Source\PSoC4/CyLib.c ****     * Function Name: CySysClkPllSetBypassMode
1580:.\Generated_Source\PSoC4/CyLib.c ****     ****************************************************************************//**
1581:.\Generated_Source\PSoC4/CyLib.c ****     *
1582:.\Generated_Source\PSoC4/CyLib.c ****     * Sets the bypass mode for the specified PLL.
1583:.\Generated_Source\PSoC4/CyLib.c ****     *
1584:.\Generated_Source\PSoC4/CyLib.c ****     * The PLL must not be the system clock source when calling this function.
1585:.\Generated_Source\PSoC4/CyLib.c ****     * The PLL output will glitch during this function call.
1586:.\Generated_Source\PSoC4/CyLib.c ****     *
1587:.\Generated_Source\PSoC4/CyLib.c ****     * When the PLL's reference input is higher than HFCLK frequency the device may 
1588:.\Generated_Source\PSoC4/CyLib.c ****     * lock due to incorrect flash wait cycle configuration and bypass switches from 
1589:.\Generated_Source\PSoC4/CyLib.c ****     * PLL output to the reference input. See description of 
1590:.\Generated_Source\PSoC4/CyLib.c ****     * CySysFlashSetWaitCycles() for more information.
1591:.\Generated_Source\PSoC4/CyLib.c ****     *
1592:.\Generated_Source\PSoC4/CyLib.c ****     * This API is available only for PSoC 4200L devices.
1593:.\Generated_Source\PSoC4/CyLib.c ****     *
1594:.\Generated_Source\PSoC4/CyLib.c ****     * \param PLL:
1595:.\Generated_Source\PSoC4/CyLib.c ****     *  0   PLL#0
1596:.\Generated_Source\PSoC4/CyLib.c ****     *  1   PLL#1
1597:.\Generated_Source\PSoC4/CyLib.c ****     *
1598:.\Generated_Source\PSoC4/CyLib.c ****     * \param bypass: The bypass mode.
1599:.\Generated_Source\PSoC4/CyLib.c ****     * CY_SYS_PLL_BYPASS_AUTO - Automatic usage of the lock indicator. When unlocked,
1600:.\Generated_Source\PSoC4/CyLib.c ****     * automatically selects PLL the reference input (bypass mode). When locked,
1601:.\Generated_Source\PSoC4/CyLib.c ****     * automatically selects the PLL output.
1602:.\Generated_Source\PSoC4/CyLib.c ****     *
1603:.\Generated_Source\PSoC4/CyLib.c ****     * CY_SYS_PLL_BYPASS_PLL_REF - Selects the PLL reference input (bypass mode).
1604:.\Generated_Source\PSoC4/CyLib.c ****     * Ignores the lock indicator.
1605:.\Generated_Source\PSoC4/CyLib.c ****     *
1606:.\Generated_Source\PSoC4/CyLib.c ****     * CY_SYS_PLL_BYPASS_PLL_OUT - Selects the PLL output.  Ignores the lock indicator.
1607:.\Generated_Source\PSoC4/CyLib.c ****     *
1608:.\Generated_Source\PSoC4/CyLib.c ****     *******************************************************************************/
1609:.\Generated_Source\PSoC4/CyLib.c ****     void CySysClkPllSetBypassMode(uint32 pll, uint32 bypass)
1610:.\Generated_Source\PSoC4/CyLib.c ****     {
1611:.\Generated_Source\PSoC4/CyLib.c ****         uint32 regTmp;
1612:.\Generated_Source\PSoC4/CyLib.c ****         uint8  interruptState;
1613:.\Generated_Source\PSoC4/CyLib.c **** 
1614:.\Generated_Source\PSoC4/CyLib.c ****         interruptState = CyEnterCriticalSection();
1615:.\Generated_Source\PSoC4/CyLib.c **** 
1616:.\Generated_Source\PSoC4/CyLib.c ****         if ((pll < CY_IP_PLL_NR) && (bypass <= CY_SYS_PLL_BYPASS_PLL_OUT))
1617:.\Generated_Source\PSoC4/CyLib.c ****         {
1618:.\Generated_Source\PSoC4/CyLib.c ****             regTmp  = CY_SYS_CLK_PLL_BASE.pll[pll].config & (uint32) ~CY_SYS_CLK_PLL_CONFIG_BYPASS_
1619:.\Generated_Source\PSoC4/CyLib.c ****             regTmp |=  (uint32)(bypass << CY_SYS_CLK_PLL_CONFIG_BYPASS_SEL_SHIFT);
1620:.\Generated_Source\PSoC4/CyLib.c ****             CY_SYS_CLK_PLL_BASE.pll[pll].config = regTmp;
1621:.\Generated_Source\PSoC4/CyLib.c ****         }
1622:.\Generated_Source\PSoC4/CyLib.c **** 
1623:.\Generated_Source\PSoC4/CyLib.c ****         CyExitCriticalSection(interruptState);
1624:.\Generated_Source\PSoC4/CyLib.c ****     }
ARM GAS  C:\Users\SPITFI~1\AppData\Local\Temp\ccTvxQXd.s 			page 34


1625:.\Generated_Source\PSoC4/CyLib.c **** 
1626:.\Generated_Source\PSoC4/CyLib.c **** 
1627:.\Generated_Source\PSoC4/CyLib.c ****     /*******************************************************************************
1628:.\Generated_Source\PSoC4/CyLib.c ****     * Function Name: CySysClkPllGetBypassMode
1629:.\Generated_Source\PSoC4/CyLib.c ****     ****************************************************************************//**
1630:.\Generated_Source\PSoC4/CyLib.c ****     *
1631:.\Generated_Source\PSoC4/CyLib.c ****     *  Gets the bypass mode for the specified PLL.
1632:.\Generated_Source\PSoC4/CyLib.c ****     *  This API is available only for PSoC 4200L devices.
1633:.\Generated_Source\PSoC4/CyLib.c ****     *
1634:.\Generated_Source\PSoC4/CyLib.c ****     *  \param PLL:
1635:.\Generated_Source\PSoC4/CyLib.c ****     *   0   PLL#0
1636:.\Generated_Source\PSoC4/CyLib.c ****     *   1   PLL#1
1637:.\Generated_Source\PSoC4/CyLib.c ****     *
1638:.\Generated_Source\PSoC4/CyLib.c ****     *  \param bypass: Bypass mode.
1639:.\Generated_Source\PSoC4/CyLib.c ****     *   The same as the parameter of the CySysClkPllSetBypassMode().
1640:.\Generated_Source\PSoC4/CyLib.c ****     *
1641:.\Generated_Source\PSoC4/CyLib.c ****     *******************************************************************************/
1642:.\Generated_Source\PSoC4/CyLib.c ****     static uint32 CySysClkPllGetBypassMode(uint32 pll)
1643:.\Generated_Source\PSoC4/CyLib.c ****     {
1644:.\Generated_Source\PSoC4/CyLib.c ****         uint32 returnValue;
1645:.\Generated_Source\PSoC4/CyLib.c ****         uint8  interruptState;
1646:.\Generated_Source\PSoC4/CyLib.c **** 
1647:.\Generated_Source\PSoC4/CyLib.c ****         CYASSERT(pll < CY_IP_PLL_NR);
1648:.\Generated_Source\PSoC4/CyLib.c **** 
1649:.\Generated_Source\PSoC4/CyLib.c ****         interruptState = CyEnterCriticalSection();
1650:.\Generated_Source\PSoC4/CyLib.c **** 
1651:.\Generated_Source\PSoC4/CyLib.c ****         returnValue = CY_SYS_CLK_PLL_BASE.pll[pll].config & CY_SYS_CLK_PLL_CONFIG_BYPASS_SEL_MASK;
1652:.\Generated_Source\PSoC4/CyLib.c ****         returnValue =  returnValue >> CY_SYS_CLK_PLL_CONFIG_BYPASS_SEL_SHIFT;
1653:.\Generated_Source\PSoC4/CyLib.c **** 
1654:.\Generated_Source\PSoC4/CyLib.c ****         CyExitCriticalSection(interruptState);
1655:.\Generated_Source\PSoC4/CyLib.c **** 
1656:.\Generated_Source\PSoC4/CyLib.c ****         return (returnValue);
1657:.\Generated_Source\PSoC4/CyLib.c ****     }
1658:.\Generated_Source\PSoC4/CyLib.c **** 
1659:.\Generated_Source\PSoC4/CyLib.c **** 
1660:.\Generated_Source\PSoC4/CyLib.c ****     /*******************************************************************************
1661:.\Generated_Source\PSoC4/CyLib.c ****     * Function Name: CySysClkPllConfigChangeAllowed
1662:.\Generated_Source\PSoC4/CyLib.c ****     ****************************************************************************//**
1663:.\Generated_Source\PSoC4/CyLib.c ****     *
1664:.\Generated_Source\PSoC4/CyLib.c ****     *  The function returns non-zero value if the specified PLL sources the System
1665:.\Generated_Source\PSoC4/CyLib.c ****     *  clock and the PLL is not in the bypass mode.
1666:.\Generated_Source\PSoC4/CyLib.c ****     *
1667:.\Generated_Source\PSoC4/CyLib.c ****     *  This API is available only for PSoC 4200L devices.
1668:.\Generated_Source\PSoC4/CyLib.c ****     *
1669:.\Generated_Source\PSoC4/CyLib.c ****     *  \param PLL:
1670:.\Generated_Source\PSoC4/CyLib.c ****     *   0   PLL#0
1671:.\Generated_Source\PSoC4/CyLib.c ****     *   1   PLL#1
1672:.\Generated_Source\PSoC4/CyLib.c ****     *
1673:.\Generated_Source\PSoC4/CyLib.c ****     * \return Non-zero value when the specified PLL sources the System clock and
1674:.\Generated_Source\PSoC4/CyLib.c ****     * the PLL is not in the bypass mode.
1675:.\Generated_Source\PSoC4/CyLib.c ****     *
1676:.\Generated_Source\PSoC4/CyLib.c ****     *******************************************************************************/
1677:.\Generated_Source\PSoC4/CyLib.c ****     static cystatus CySysClkPllConfigChangeAllowed(uint32 pll)
1678:.\Generated_Source\PSoC4/CyLib.c ****     {
1679:.\Generated_Source\PSoC4/CyLib.c ****         uint32   pllBypassMode;
1680:.\Generated_Source\PSoC4/CyLib.c ****         uint32   sysclkSource;
1681:.\Generated_Source\PSoC4/CyLib.c ****         cystatus returnValue = CYRET_LOCKED;
ARM GAS  C:\Users\SPITFI~1\AppData\Local\Temp\ccTvxQXd.s 			page 35


1682:.\Generated_Source\PSoC4/CyLib.c **** 
1683:.\Generated_Source\PSoC4/CyLib.c ****         sysclkSource  = CySysClkGetSysclkSource();
1684:.\Generated_Source\PSoC4/CyLib.c ****         pllBypassMode = CySysClkPllGetBypassMode(pll);
1685:.\Generated_Source\PSoC4/CyLib.c **** 
1686:.\Generated_Source\PSoC4/CyLib.c ****         if ((CY_SYS_PLL_BYPASS_PLL_REF == pllBypassMode)             ||
1687:.\Generated_Source\PSoC4/CyLib.c ****             ((CY_SYS_CLK_HFCLK_PLL0 != sysclkSource) && (0u == pll)) ||
1688:.\Generated_Source\PSoC4/CyLib.c ****             ((CY_SYS_CLK_HFCLK_PLL1 != sysclkSource) && (1u == pll)))
1689:.\Generated_Source\PSoC4/CyLib.c ****         {
1690:.\Generated_Source\PSoC4/CyLib.c ****             returnValue = CYRET_SUCCESS;
1691:.\Generated_Source\PSoC4/CyLib.c ****         }
1692:.\Generated_Source\PSoC4/CyLib.c **** 
1693:.\Generated_Source\PSoC4/CyLib.c ****         return (returnValue);
1694:.\Generated_Source\PSoC4/CyLib.c ****     }
1695:.\Generated_Source\PSoC4/CyLib.c **** 
1696:.\Generated_Source\PSoC4/CyLib.c **** 
1697:.\Generated_Source\PSoC4/CyLib.c ****     /*******************************************************************************
1698:.\Generated_Source\PSoC4/CyLib.c ****     * Function Name: CySysClkPllGetUnlockStatus
1699:.\Generated_Source\PSoC4/CyLib.c ****     ****************************************************************************//**
1700:.\Generated_Source\PSoC4/CyLib.c ****     *
1701:.\Generated_Source\PSoC4/CyLib.c ****     *  Returns a non-zero value if the specified PLL output was unlocked.
1702:.\Generated_Source\PSoC4/CyLib.c ****     *  The unlock status is an indicator that the PLL has lost a lock at least once
1703:.\Generated_Source\PSoC4/CyLib.c ****     *  during its operation. The unlock status is cleared once it is read using
1704:.\Generated_Source\PSoC4/CyLib.c ****     *  this API.
1705:.\Generated_Source\PSoC4/CyLib.c ****     *
1706:.\Generated_Source\PSoC4/CyLib.c ****     *  This API is available only for PSoC 4200L devices.
1707:.\Generated_Source\PSoC4/CyLib.c ****     *
1708:.\Generated_Source\PSoC4/CyLib.c ****     *  \param PLL:
1709:.\Generated_Source\PSoC4/CyLib.c ****     *   0   PLL#0
1710:.\Generated_Source\PSoC4/CyLib.c ****     *   1   PLL#1
1711:.\Generated_Source\PSoC4/CyLib.c ****     *
1712:.\Generated_Source\PSoC4/CyLib.c ****     * \return Non-zero value when the specified PLL was unlocked.
1713:.\Generated_Source\PSoC4/CyLib.c ****     *
1714:.\Generated_Source\PSoC4/CyLib.c ****     *******************************************************************************/
1715:.\Generated_Source\PSoC4/CyLib.c ****     uint32 CySysClkPllGetUnlockStatus(uint32 pll)
1716:.\Generated_Source\PSoC4/CyLib.c ****     {
1717:.\Generated_Source\PSoC4/CyLib.c ****         uint32 returnStatus = 0u;
1718:.\Generated_Source\PSoC4/CyLib.c ****         uint8  interruptState;
1719:.\Generated_Source\PSoC4/CyLib.c **** 
1720:.\Generated_Source\PSoC4/CyLib.c ****         interruptState = CyEnterCriticalSection();
1721:.\Generated_Source\PSoC4/CyLib.c **** 
1722:.\Generated_Source\PSoC4/CyLib.c ****         returnStatus = CY_SYS_CLK_PLL_BASE.pll[pll].test & CY_SYS_CLK_PLL_TEST_UNLOCK_OCCURRED_MASK
1723:.\Generated_Source\PSoC4/CyLib.c ****         CY_SYS_CLK_PLL_BASE.pll[pll].test |= CY_SYS_CLK_PLL_TEST_UNLOCK_OCCURRED_MASK;
1724:.\Generated_Source\PSoC4/CyLib.c **** 
1725:.\Generated_Source\PSoC4/CyLib.c ****         CyExitCriticalSection(interruptState);
1726:.\Generated_Source\PSoC4/CyLib.c **** 
1727:.\Generated_Source\PSoC4/CyLib.c ****         return (returnStatus);
1728:.\Generated_Source\PSoC4/CyLib.c ****     }
1729:.\Generated_Source\PSoC4/CyLib.c **** 
1730:.\Generated_Source\PSoC4/CyLib.c **** 
1731:.\Generated_Source\PSoC4/CyLib.c ****     /*******************************************************************************
1732:.\Generated_Source\PSoC4/CyLib.c ****     * Function Name: CySysClkPllSetFrequency
1733:.\Generated_Source\PSoC4/CyLib.c ****     ****************************************************************************//**
1734:.\Generated_Source\PSoC4/CyLib.c ****     *
1735:.\Generated_Source\PSoC4/CyLib.c ****     * Configures either PLL#0 or PLL#1 for the requested input/output frequencies.
1736:.\Generated_Source\PSoC4/CyLib.c ****     * The input frequency is the frequency of the source to the PLL. The source is
1737:.\Generated_Source\PSoC4/CyLib.c ****     * set using the CySysClkPllSetSource() function.
1738:.\Generated_Source\PSoC4/CyLib.c ****     *
ARM GAS  C:\Users\SPITFI~1\AppData\Local\Temp\ccTvxQXd.s 			page 36


1739:.\Generated_Source\PSoC4/CyLib.c ****     * The PLL must not be the system clock source when calling this function. The
1740:.\Generated_Source\PSoC4/CyLib.c ****     * PLL output will glitch during this function call.
1741:.\Generated_Source\PSoC4/CyLib.c ****     *
1742:.\Generated_Source\PSoC4/CyLib.c ****     * This API is available only for PSoC 4200L devices.
1743:.\Generated_Source\PSoC4/CyLib.c ****     *
1744:.\Generated_Source\PSoC4/CyLib.c ****     * \param pll:
1745:.\Generated_Source\PSoC4/CyLib.c ****     *  0   PLL#0
1746:.\Generated_Source\PSoC4/CyLib.c ****     *  1   PLL#1
1747:.\Generated_Source\PSoC4/CyLib.c ****     *
1748:.\Generated_Source\PSoC4/CyLib.c ****     * \param inputFreq The reference frequency in KHz. The valid range is from 1000 to 49152 KHz.
1749:.\Generated_Source\PSoC4/CyLib.c ****     *
1750:.\Generated_Source\PSoC4/CyLib.c ****     * \param pllFreq The target frequency in KHz. The valid range is from 22500 to 49152 KHz.
1751:.\Generated_Source\PSoC4/CyLib.c ****     *
1752:.\Generated_Source\PSoC4/CyLib.c ****     * \param divider The output clock divider for the PLL:
1753:.\Generated_Source\PSoC4/CyLib.c ****     * CY_SYS_PLL_OUTPUT_DIVPASS    Pass Through
1754:.\Generated_Source\PSoC4/CyLib.c ****     * CY_SYS_PLL_OUTPUT_DIV2       Divide by 2
1755:.\Generated_Source\PSoC4/CyLib.c ****     * CY_SYS_PLL_OUTPUT_DIV4       Divide by 4
1756:.\Generated_Source\PSoC4/CyLib.c ****     * CY_SYS_PLL_OUTPUT_DIV8       Divide by 8
1757:.\Generated_Source\PSoC4/CyLib.c ****     *
1758:.\Generated_Source\PSoC4/CyLib.c ****     * \param freqTol The tolerance in ppm, 10 ppm is equal to 0.001%.
1759:.\Generated_Source\PSoC4/CyLib.c ****     *
1760:.\Generated_Source\PSoC4/CyLib.c ****     * \return CYRET_SUCCESS The PLL was successfully configured for the requested
1761:.\Generated_Source\PSoC4/CyLib.c ****     * frequency.
1762:.\Generated_Source\PSoC4/CyLib.c ****     *
1763:.\Generated_Source\PSoC4/CyLib.c ****     * \return CYRET_BAD_PARAM The PLL was not able to successfully configure for the
1764:.\Generated_Source\PSoC4/CyLib.c ****     * requested frequency.
1765:.\Generated_Source\PSoC4/CyLib.c ****     *
1766:.\Generated_Source\PSoC4/CyLib.c ****     *******************************************************************************/
1767:.\Generated_Source\PSoC4/CyLib.c ****     cystatus CySysClkPllSetFrequency(uint32 pll, uint32 inputFreq, uint32 pllFreq, uint32 divider, 
1768:.\Generated_Source\PSoC4/CyLib.c ****     {
1769:.\Generated_Source\PSoC4/CyLib.c ****         uint32 qMin;
1770:.\Generated_Source\PSoC4/CyLib.c ****         uint32 qMax;
1771:.\Generated_Source\PSoC4/CyLib.c **** 
1772:.\Generated_Source\PSoC4/CyLib.c ****         uint32 qVal = CY_SYS_CLK_PLL_INVALID;
1773:.\Generated_Source\PSoC4/CyLib.c ****         uint32 pVal = CY_SYS_CLK_PLL_INVALID;
1774:.\Generated_Source\PSoC4/CyLib.c **** 
1775:.\Generated_Source\PSoC4/CyLib.c ****         uint32 q;
1776:.\Generated_Source\PSoC4/CyLib.c ****         uint32 p;
1777:.\Generated_Source\PSoC4/CyLib.c **** 
1778:.\Generated_Source\PSoC4/CyLib.c ****         uint32 fvco;
1779:.\Generated_Source\PSoC4/CyLib.c ****         int32 ferr;
1780:.\Generated_Source\PSoC4/CyLib.c **** 
1781:.\Generated_Source\PSoC4/CyLib.c ****         cystatus tmp;
1782:.\Generated_Source\PSoC4/CyLib.c ****         cystatus returnStatus = CYRET_BAD_PARAM;
1783:.\Generated_Source\PSoC4/CyLib.c **** 
1784:.\Generated_Source\PSoC4/CyLib.c **** 
1785:.\Generated_Source\PSoC4/CyLib.c ****         tmp = CySysClkPllConfigChangeAllowed(pll);
1786:.\Generated_Source\PSoC4/CyLib.c **** 
1787:.\Generated_Source\PSoC4/CyLib.c ****         if ((pll < CY_IP_PLL_NR) &&
1788:.\Generated_Source\PSoC4/CyLib.c ****             (inputFreq  >= CY_SYS_CLK_PLL_INPUT_FREQ_MIN )  && (inputFreq  <= CY_SYS_CLK_PLL_INPUT_
1789:.\Generated_Source\PSoC4/CyLib.c ****             (pllFreq >= CY_SYS_CLK_PLL_OUTPUT_FREQ_MIN ) && (pllFreq <= CY_SYS_CLK_PLL_OUTPUT_FREQ_
1790:.\Generated_Source\PSoC4/CyLib.c ****             (divider <= CY_SYS_PLL_OUTPUT_DIV8) &&
1791:.\Generated_Source\PSoC4/CyLib.c ****             (CYRET_SUCCESS == tmp))
1792:.\Generated_Source\PSoC4/CyLib.c ****         {
1793:.\Generated_Source\PSoC4/CyLib.c **** 
1794:.\Generated_Source\PSoC4/CyLib.c ****             /* Minimum feed forward loop divisor */
1795:.\Generated_Source\PSoC4/CyLib.c ****             qMin = (inputFreq + (CY_SYS_CLK_PLL_FPFDMAX - 1u)) / CY_SYS_CLK_PLL_FPFDMAX;
ARM GAS  C:\Users\SPITFI~1\AppData\Local\Temp\ccTvxQXd.s 			page 37


1796:.\Generated_Source\PSoC4/CyLib.c ****             qMin = (qMin < CY_SYS_CLK_PLL_QMINIP) ? CY_SYS_CLK_PLL_QMINIP : qMin;
1797:.\Generated_Source\PSoC4/CyLib.c **** 
1798:.\Generated_Source\PSoC4/CyLib.c ****             /* Maximum feed forward loop divisor */
1799:.\Generated_Source\PSoC4/CyLib.c ****             qMax = inputFreq / CY_SYS_CLK_PLL_FPFDMIN;
1800:.\Generated_Source\PSoC4/CyLib.c ****             qMax = (qMax > CY_SYS_CLK_PLL_QMAXIP) ? CY_SYS_CLK_PLL_QMAXIP : qMax;
1801:.\Generated_Source\PSoC4/CyLib.c **** 
1802:.\Generated_Source\PSoC4/CyLib.c ****             if (qMin <= qMax)
1803:.\Generated_Source\PSoC4/CyLib.c ****             {
1804:.\Generated_Source\PSoC4/CyLib.c ****                 for(q = qMin; q <= qMax; q++)
1805:.\Generated_Source\PSoC4/CyLib.c ****                 {
1806:.\Generated_Source\PSoC4/CyLib.c ****                     /* Solve for the feedback divisor value */
1807:.\Generated_Source\PSoC4/CyLib.c **** 
1808:.\Generated_Source\PSoC4/CyLib.c ****                     /* INT((pllFreq * q ) / inputFreq), where INT is normal rounding  */
1809:.\Generated_Source\PSoC4/CyLib.c ****                     p = ((pllFreq * q) + (inputFreq / 2u)) / inputFreq;
1810:.\Generated_Source\PSoC4/CyLib.c **** 
1811:.\Generated_Source\PSoC4/CyLib.c ****                     /* Calculate the actual VCO frequency (FVCO) */
1812:.\Generated_Source\PSoC4/CyLib.c ****                     fvco = ((inputFreq * p) / q);
1813:.\Generated_Source\PSoC4/CyLib.c **** 
1814:.\Generated_Source\PSoC4/CyLib.c ****                     /* Calculate the frequency error (FERR) */
1815:.\Generated_Source\PSoC4/CyLib.c ****                     ferr = ((1000000 * ((int32) fvco - (int32) pllFreq))/ (int32) pllFreq);
1816:.\Generated_Source\PSoC4/CyLib.c **** 
1817:.\Generated_Source\PSoC4/CyLib.c ****                     /* Bound check the frequency error and decide next action */
1818:.\Generated_Source\PSoC4/CyLib.c ****                     if ((( -1 * (int32) freqTol) <= ferr) && (ferr <= (int32) freqTol))
1819:.\Generated_Source\PSoC4/CyLib.c ****                     {
1820:.\Generated_Source\PSoC4/CyLib.c ****                         qVal = q;
1821:.\Generated_Source\PSoC4/CyLib.c ****                         pVal = p;
1822:.\Generated_Source\PSoC4/CyLib.c ****                         break;
1823:.\Generated_Source\PSoC4/CyLib.c ****                     }
1824:.\Generated_Source\PSoC4/CyLib.c ****                 }
1825:.\Generated_Source\PSoC4/CyLib.c **** 
1826:.\Generated_Source\PSoC4/CyLib.c **** 
1827:.\Generated_Source\PSoC4/CyLib.c ****                 if ((pVal != CY_SYS_CLK_PLL_INVALID) && (qVal != CY_SYS_CLK_PLL_INVALID))
1828:.\Generated_Source\PSoC4/CyLib.c ****                 {
1829:.\Generated_Source\PSoC4/CyLib.c ****                     if (CySysClkPllSetPQ(pll, pVal, qVal, CY_SYS_CLK_PLL_CURRENT_DEFAULT) == CYRET_
1830:.\Generated_Source\PSoC4/CyLib.c ****                     {
1831:.\Generated_Source\PSoC4/CyLib.c ****                         returnStatus = CySysClkPllSetOutputDivider(pll, divider);
1832:.\Generated_Source\PSoC4/CyLib.c ****                     }
1833:.\Generated_Source\PSoC4/CyLib.c ****                 }
1834:.\Generated_Source\PSoC4/CyLib.c ****             }
1835:.\Generated_Source\PSoC4/CyLib.c **** 
1836:.\Generated_Source\PSoC4/CyLib.c ****         }
1837:.\Generated_Source\PSoC4/CyLib.c **** 
1838:.\Generated_Source\PSoC4/CyLib.c ****         return (returnStatus);
1839:.\Generated_Source\PSoC4/CyLib.c ****     }
1840:.\Generated_Source\PSoC4/CyLib.c **** 
1841:.\Generated_Source\PSoC4/CyLib.c **** 
1842:.\Generated_Source\PSoC4/CyLib.c ****     /*******************************************************************************
1843:.\Generated_Source\PSoC4/CyLib.c ****     * Function Name: CySysClkPllSetSource
1844:.\Generated_Source\PSoC4/CyLib.c ****     ****************************************************************************//**
1845:.\Generated_Source\PSoC4/CyLib.c ****     *
1846:.\Generated_Source\PSoC4/CyLib.c ****     *  Sets the input clock source to the PLL. The PLL must be disabled before
1847:.\Generated_Source\PSoC4/CyLib.c ****     *  calling this function.
1848:.\Generated_Source\PSoC4/CyLib.c ****     *
1849:.\Generated_Source\PSoC4/CyLib.c ****     *  This API is available only for PSoC 4200L devices.
1850:.\Generated_Source\PSoC4/CyLib.c ****     *
1851:.\Generated_Source\PSoC4/CyLib.c ****     *  \param PLL:
1852:.\Generated_Source\PSoC4/CyLib.c ****     *  0   PLL#0
ARM GAS  C:\Users\SPITFI~1\AppData\Local\Temp\ccTvxQXd.s 			page 38


1853:.\Generated_Source\PSoC4/CyLib.c ****     *  1   PLL#1
1854:.\Generated_Source\PSoC4/CyLib.c ****     *
1855:.\Generated_Source\PSoC4/CyLib.c ****     * \param source:
1856:.\Generated_Source\PSoC4/CyLib.c ****     *  CY_SYS_PLL_SOURCE_IMO        IMO
1857:.\Generated_Source\PSoC4/CyLib.c ****     *  CY_SYS_PLL_SOURCE_EXTCLK     External Clock
1858:.\Generated_Source\PSoC4/CyLib.c ****     *  CY_SYS_PLL_SOURCE_ECO        ECO
1859:.\Generated_Source\PSoC4/CyLib.c ****     *  CY_SYS_PLL_SOURCE_DSI0       DSI_OUT[0]
1860:.\Generated_Source\PSoC4/CyLib.c ****     *  CY_SYS_PLL_SOURCE_DSI1       DSI_OUT[1]
1861:.\Generated_Source\PSoC4/CyLib.c ****     *  CY_SYS_PLL_SOURCE_DSI2       DSI_OUT[2]
1862:.\Generated_Source\PSoC4/CyLib.c ****     *  CY_SYS_PLL_SOURCE_DSI3       DSI_OUT[3]
1863:.\Generated_Source\PSoC4/CyLib.c ****     *
1864:.\Generated_Source\PSoC4/CyLib.c ****     *******************************************************************************/
1865:.\Generated_Source\PSoC4/CyLib.c ****     void CySysClkPllSetSource(uint32 pll, uint32 source)
1866:.\Generated_Source\PSoC4/CyLib.c ****     {
1867:.\Generated_Source\PSoC4/CyLib.c ****         uint32 regTmp;
1868:.\Generated_Source\PSoC4/CyLib.c ****         uint8  interruptState;
1869:.\Generated_Source\PSoC4/CyLib.c **** 
1870:.\Generated_Source\PSoC4/CyLib.c ****         interruptState = CyEnterCriticalSection();
1871:.\Generated_Source\PSoC4/CyLib.c **** 
1872:.\Generated_Source\PSoC4/CyLib.c ****         if (pll < CY_IP_PLL_NR)
1873:.\Generated_Source\PSoC4/CyLib.c ****         {
1874:.\Generated_Source\PSoC4/CyLib.c ****             regTmp = CY_SYS_CLK_SELECT_REG & (uint32) ~CY_SYS_CLK_SELECT_PLL_MASK(pll);
1875:.\Generated_Source\PSoC4/CyLib.c ****             regTmp |= ((source << CY_SYS_CLK_SELECT_PLL_SHIFT(pll)) & CY_SYS_CLK_SELECT_PLL_MASK(pl
1876:.\Generated_Source\PSoC4/CyLib.c ****             CY_SYS_CLK_SELECT_REG = regTmp;
1877:.\Generated_Source\PSoC4/CyLib.c ****         }
1878:.\Generated_Source\PSoC4/CyLib.c **** 
1879:.\Generated_Source\PSoC4/CyLib.c ****         CyExitCriticalSection(interruptState);
1880:.\Generated_Source\PSoC4/CyLib.c ****     }
1881:.\Generated_Source\PSoC4/CyLib.c **** 
1882:.\Generated_Source\PSoC4/CyLib.c **** 
1883:.\Generated_Source\PSoC4/CyLib.c ****     /*******************************************************************************
1884:.\Generated_Source\PSoC4/CyLib.c ****     * Function Name: CySysClkPllSetOutputDivider
1885:.\Generated_Source\PSoC4/CyLib.c ****     ****************************************************************************//**
1886:.\Generated_Source\PSoC4/CyLib.c ****     *
1887:.\Generated_Source\PSoC4/CyLib.c ****     *  Sets the output clock divider for the PLL.
1888:.\Generated_Source\PSoC4/CyLib.c ****     *
1889:.\Generated_Source\PSoC4/CyLib.c ****     *  The PLL must not be the System Clock source when calling this function. The
1890:.\Generated_Source\PSoC4/CyLib.c ****     *  PLL output will glitch during this function call.
1891:.\Generated_Source\PSoC4/CyLib.c ****     *
1892:.\Generated_Source\PSoC4/CyLib.c ****     *  This API is available only for PSoC 4200L devices.
1893:.\Generated_Source\PSoC4/CyLib.c ****     *
1894:.\Generated_Source\PSoC4/CyLib.c ****     *  \param PLL:
1895:.\Generated_Source\PSoC4/CyLib.c ****     *   0   PLL#0
1896:.\Generated_Source\PSoC4/CyLib.c ****     *   1   PLL#1
1897:.\Generated_Source\PSoC4/CyLib.c ****     *
1898:.\Generated_Source\PSoC4/CyLib.c ****     * \param divider:
1899:.\Generated_Source\PSoC4/CyLib.c ****     *  CY_SYS_PLL_OUTPUT_DIVPASS    Pass through
1900:.\Generated_Source\PSoC4/CyLib.c ****     *  CY_SYS_PLL_OUTPUT_DIV2       Divide by 2
1901:.\Generated_Source\PSoC4/CyLib.c ****     *  CY_SYS_PLL_OUTPUT_DIV4       Divide by 4
1902:.\Generated_Source\PSoC4/CyLib.c ****     *  CY_SYS_PLL_OUTPUT_DIV8       Divide by 8
1903:.\Generated_Source\PSoC4/CyLib.c ****     *
1904:.\Generated_Source\PSoC4/CyLib.c ****     * \return \ref CYRET_SUCCESS    Completed successfully.
1905:.\Generated_Source\PSoC4/CyLib.c ****     * \return \ref CYRET_BAD_PARAM  The parameters are out of range or the
1906:.\Generated_Source\PSoC4/CyLib.c ****     * specified PLL sources the System clock.
1907:.\Generated_Source\PSoC4/CyLib.c ****     *
1908:.\Generated_Source\PSoC4/CyLib.c ****     *******************************************************************************/
1909:.\Generated_Source\PSoC4/CyLib.c ****     cystatus CySysClkPllSetOutputDivider(uint32 pll, uint32 divider)
ARM GAS  C:\Users\SPITFI~1\AppData\Local\Temp\ccTvxQXd.s 			page 39


1910:.\Generated_Source\PSoC4/CyLib.c ****     {
1911:.\Generated_Source\PSoC4/CyLib.c ****         uint32   tmpReg;
1912:.\Generated_Source\PSoC4/CyLib.c ****         uint8    interruptState;
1913:.\Generated_Source\PSoC4/CyLib.c ****         cystatus returnStatus = CYRET_BAD_PARAM;
1914:.\Generated_Source\PSoC4/CyLib.c ****         cystatus tmp;
1915:.\Generated_Source\PSoC4/CyLib.c **** 
1916:.\Generated_Source\PSoC4/CyLib.c **** 
1917:.\Generated_Source\PSoC4/CyLib.c ****         interruptState = CyEnterCriticalSection();
1918:.\Generated_Source\PSoC4/CyLib.c **** 
1919:.\Generated_Source\PSoC4/CyLib.c ****         tmp = CySysClkPllConfigChangeAllowed(pll);
1920:.\Generated_Source\PSoC4/CyLib.c **** 
1921:.\Generated_Source\PSoC4/CyLib.c ****         if ((pll < CY_IP_PLL_NR) && (CYRET_SUCCESS == tmp) && (divider <= CY_SYS_PLL_OUTPUT_DIV8))
1922:.\Generated_Source\PSoC4/CyLib.c ****         {
1923:.\Generated_Source\PSoC4/CyLib.c ****             tmpReg  = CY_SYS_CLK_PLL_BASE.pll[pll].config & (uint32) ~(CY_SYS_CLK_PLL_CONFIG_OUTPUT
1924:.\Generated_Source\PSoC4/CyLib.c ****             tmpReg |= ((divider << CY_SYS_CLK_PLL_CONFIG_OUTPUT_DIV_SHIFT) & CY_SYS_CLK_PLL_CONFIG_
1925:.\Generated_Source\PSoC4/CyLib.c **** 
1926:.\Generated_Source\PSoC4/CyLib.c ****             CY_SYS_CLK_PLL_BASE.pll[pll].config = tmpReg;
1927:.\Generated_Source\PSoC4/CyLib.c **** 
1928:.\Generated_Source\PSoC4/CyLib.c ****             returnStatus = CYRET_SUCCESS;
1929:.\Generated_Source\PSoC4/CyLib.c ****         }
1930:.\Generated_Source\PSoC4/CyLib.c **** 
1931:.\Generated_Source\PSoC4/CyLib.c ****         CyExitCriticalSection(interruptState);
1932:.\Generated_Source\PSoC4/CyLib.c **** 
1933:.\Generated_Source\PSoC4/CyLib.c ****         return (returnStatus);
1934:.\Generated_Source\PSoC4/CyLib.c ****     }
1935:.\Generated_Source\PSoC4/CyLib.c **** #endif /* (CY_IP_SRSSV2 && CY_IP_PLL) */
1936:.\Generated_Source\PSoC4/CyLib.c **** 
1937:.\Generated_Source\PSoC4/CyLib.c **** 
1938:.\Generated_Source\PSoC4/CyLib.c **** #if(CY_IP_SRSSV2)
1939:.\Generated_Source\PSoC4/CyLib.c **** 
1940:.\Generated_Source\PSoC4/CyLib.c ****     /*******************************************************************************
1941:.\Generated_Source\PSoC4/CyLib.c ****     * Function Name: CySysLvdEnable
1942:.\Generated_Source\PSoC4/CyLib.c ****     ****************************************************************************//**
1943:.\Generated_Source\PSoC4/CyLib.c ****     *
1944:.\Generated_Source\PSoC4/CyLib.c ****     *  Enables the output of the low-voltage monitor when Vddd is at or below the
1945:.\Generated_Source\PSoC4/CyLib.c ****     *  trip point, configures the device to generate an interrupt, and sets the
1946:.\Generated_Source\PSoC4/CyLib.c ****     *  voltage trip level.
1947:.\Generated_Source\PSoC4/CyLib.c ****     *
1948:.\Generated_Source\PSoC4/CyLib.c ****     *  \param threshold: Threshold selection for Low Voltage Detect circuit.
1949:.\Generated_Source\PSoC4/CyLib.c ****     *  Threshold variation is +/- 2.5% from these typical voltage choices.
1950:.\Generated_Source\PSoC4/CyLib.c ****     *         Define                     Voltage threshold
1951:.\Generated_Source\PSoC4/CyLib.c ****     *    CY_LVD_THRESHOLD_1_75_V       1.7500 V
1952:.\Generated_Source\PSoC4/CyLib.c ****     *    CY_LVD_THRESHOLD_1_80_V       1.8000 V
1953:.\Generated_Source\PSoC4/CyLib.c ****     *    CY_LVD_THRESHOLD_1_90_V       1.9000 V
1954:.\Generated_Source\PSoC4/CyLib.c ****     *    CY_LVD_THRESHOLD_2_00_V       2.0000 V
1955:.\Generated_Source\PSoC4/CyLib.c ****     *    CY_LVD_THRESHOLD_2_10_V       2.1000 V
1956:.\Generated_Source\PSoC4/CyLib.c ****     *    CY_LVD_THRESHOLD_2_20_V       2.2000 V
1957:.\Generated_Source\PSoC4/CyLib.c ****     *    CY_LVD_THRESHOLD_2_30_V       2.3000 V
1958:.\Generated_Source\PSoC4/CyLib.c ****     *    CY_LVD_THRESHOLD_2_40_V       2.4000 V
1959:.\Generated_Source\PSoC4/CyLib.c ****     *    CY_LVD_THRESHOLD_2_50_V       2.5000 V
1960:.\Generated_Source\PSoC4/CyLib.c ****     *    CY_LVD_THRESHOLD_2_60_V       2.6000 V
1961:.\Generated_Source\PSoC4/CyLib.c ****     *    CY_LVD_THRESHOLD_2_70_V       2.7000 V
1962:.\Generated_Source\PSoC4/CyLib.c ****     *    CY_LVD_THRESHOLD_2_80_V       2.8000 V
1963:.\Generated_Source\PSoC4/CyLib.c ****     *    CY_LVD_THRESHOLD_2_90_V       2.9000 V
1964:.\Generated_Source\PSoC4/CyLib.c ****     *    CY_LVD_THRESHOLD_3_00_V       3.0000 V
1965:.\Generated_Source\PSoC4/CyLib.c ****     *    CY_LVD_THRESHOLD_3_20_V       3.2000 V
1966:.\Generated_Source\PSoC4/CyLib.c ****     *    CY_LVD_THRESHOLD_4_50_V       4.5000 V
ARM GAS  C:\Users\SPITFI~1\AppData\Local\Temp\ccTvxQXd.s 			page 40


1967:.\Generated_Source\PSoC4/CyLib.c ****     *
1968:.\Generated_Source\PSoC4/CyLib.c ****     *******************************************************************************/
1969:.\Generated_Source\PSoC4/CyLib.c ****     void CySysLvdEnable(uint32 threshold)
1970:.\Generated_Source\PSoC4/CyLib.c ****     {
1971:.\Generated_Source\PSoC4/CyLib.c ****         /* Prevent propagating a false interrupt */
1972:.\Generated_Source\PSoC4/CyLib.c ****         CY_LVD_PWR_INTR_MASK_REG   &= (uint32) ~CY_LVD_PROPAGATE_INT_TO_CPU;
1973:.\Generated_Source\PSoC4/CyLib.c **** 
1974:.\Generated_Source\PSoC4/CyLib.c ****         /* Set specified threshold */
1975:.\Generated_Source\PSoC4/CyLib.c ****         CY_LVD_PWR_VMON_CONFIG_REG = (CY_LVD_PWR_VMON_CONFIG_REG & ~CY_LVD_PWR_VMON_CONFIG_LVD_SEL_
1976:.\Generated_Source\PSoC4/CyLib.c ****                 ((threshold << CY_LVD_PWR_VMON_CONFIG_LVD_SEL_SHIFT) & CY_LVD_PWR_VMON_CONFIG_LVD_S
1977:.\Generated_Source\PSoC4/CyLib.c **** 
1978:.\Generated_Source\PSoC4/CyLib.c ****         /* Enable the LVD. This may cause a false LVD event. */
1979:.\Generated_Source\PSoC4/CyLib.c ****         CY_LVD_PWR_VMON_CONFIG_REG |= CY_LVD_PWR_VMON_CONFIG_LVD_EN;
1980:.\Generated_Source\PSoC4/CyLib.c **** 
1981:.\Generated_Source\PSoC4/CyLib.c ****         /* Wait for the circuit to stabilize */
1982:.\Generated_Source\PSoC4/CyLib.c ****         CyDelayUs(CY_LVD_STABILIZE_TIMEOUT_US);
1983:.\Generated_Source\PSoC4/CyLib.c **** 
1984:.\Generated_Source\PSoC4/CyLib.c ****         /* Clear the false event */
1985:.\Generated_Source\PSoC4/CyLib.c ****         CySysLvdClearInterrupt();
1986:.\Generated_Source\PSoC4/CyLib.c **** 
1987:.\Generated_Source\PSoC4/CyLib.c ****         /* Unmask the interrupt */
1988:.\Generated_Source\PSoC4/CyLib.c ****         CY_LVD_PWR_INTR_MASK_REG   |= CY_LVD_PROPAGATE_INT_TO_CPU;
1989:.\Generated_Source\PSoC4/CyLib.c ****     }
1990:.\Generated_Source\PSoC4/CyLib.c **** 
1991:.\Generated_Source\PSoC4/CyLib.c **** 
1992:.\Generated_Source\PSoC4/CyLib.c ****     /*******************************************************************************
1993:.\Generated_Source\PSoC4/CyLib.c ****     * Function Name: CySysLvdDisable
1994:.\Generated_Source\PSoC4/CyLib.c ****     ****************************************************************************//**
1995:.\Generated_Source\PSoC4/CyLib.c ****     *
1996:.\Generated_Source\PSoC4/CyLib.c ****     *  Disables the low voltage detection. A low voltage interrupt is disabled.
1997:.\Generated_Source\PSoC4/CyLib.c ****     *
1998:.\Generated_Source\PSoC4/CyLib.c ****     *******************************************************************************/
1999:.\Generated_Source\PSoC4/CyLib.c ****     void CySysLvdDisable(void)
2000:.\Generated_Source\PSoC4/CyLib.c ****     {
2001:.\Generated_Source\PSoC4/CyLib.c ****         CY_LVD_PWR_INTR_MASK_REG   &= ~CY_LVD_PROPAGATE_INT_TO_CPU;
2002:.\Generated_Source\PSoC4/CyLib.c ****         CY_LVD_PWR_VMON_CONFIG_REG &= ~CY_LVD_PWR_VMON_CONFIG_LVD_EN;
2003:.\Generated_Source\PSoC4/CyLib.c ****     }
2004:.\Generated_Source\PSoC4/CyLib.c **** 
2005:.\Generated_Source\PSoC4/CyLib.c **** 
2006:.\Generated_Source\PSoC4/CyLib.c ****     /*******************************************************************************
2007:.\Generated_Source\PSoC4/CyLib.c ****     * Function Name: CySysLvdGetInterruptSource
2008:.\Generated_Source\PSoC4/CyLib.c ****     ****************************************************************************//**
2009:.\Generated_Source\PSoC4/CyLib.c ****     *
2010:.\Generated_Source\PSoC4/CyLib.c ****     *  Gets the low voltage detection interrupt status (without clearing).
2011:.\Generated_Source\PSoC4/CyLib.c ****     *
2012:.\Generated_Source\PSoC4/CyLib.c ****     * \return
2013:.\Generated_Source\PSoC4/CyLib.c ****     *  Interrupt request value:
2014:.\Generated_Source\PSoC4/CyLib.c ****     *    CY_SYS_LVD_INT - Indicates an Low Voltage Detect interrupt
2015:.\Generated_Source\PSoC4/CyLib.c ****     *
2016:.\Generated_Source\PSoC4/CyLib.c ****     *******************************************************************************/
2017:.\Generated_Source\PSoC4/CyLib.c ****     uint32 CySysLvdGetInterruptSource(void)
2018:.\Generated_Source\PSoC4/CyLib.c ****     {
2019:.\Generated_Source\PSoC4/CyLib.c ****         return (CY_LVD_PWR_INTR_REG & CY_SYS_LVD_INT);
2020:.\Generated_Source\PSoC4/CyLib.c ****     }
2021:.\Generated_Source\PSoC4/CyLib.c **** 
2022:.\Generated_Source\PSoC4/CyLib.c **** 
2023:.\Generated_Source\PSoC4/CyLib.c ****     /*******************************************************************************
ARM GAS  C:\Users\SPITFI~1\AppData\Local\Temp\ccTvxQXd.s 			page 41


2024:.\Generated_Source\PSoC4/CyLib.c ****     * Function Name: CySysLvdClearInterrupt
2025:.\Generated_Source\PSoC4/CyLib.c ****     ****************************************************************************//**
2026:.\Generated_Source\PSoC4/CyLib.c ****     *
2027:.\Generated_Source\PSoC4/CyLib.c ****     *  Clears the low voltage detection interrupt status.
2028:.\Generated_Source\PSoC4/CyLib.c ****     *
2029:.\Generated_Source\PSoC4/CyLib.c ****     * \return
2030:.\Generated_Source\PSoC4/CyLib.c ****     *  None
2031:.\Generated_Source\PSoC4/CyLib.c ****     *
2032:.\Generated_Source\PSoC4/CyLib.c ****     *******************************************************************************/
2033:.\Generated_Source\PSoC4/CyLib.c ****     void CySysLvdClearInterrupt(void)
2034:.\Generated_Source\PSoC4/CyLib.c ****     {
2035:.\Generated_Source\PSoC4/CyLib.c ****         CY_LVD_PWR_INTR_REG = CY_SYS_LVD_INT;
2036:.\Generated_Source\PSoC4/CyLib.c ****     }
2037:.\Generated_Source\PSoC4/CyLib.c **** 
2038:.\Generated_Source\PSoC4/CyLib.c **** #endif /* (CY_IP_SRSSV2) */
2039:.\Generated_Source\PSoC4/CyLib.c **** 
2040:.\Generated_Source\PSoC4/CyLib.c **** 
2041:.\Generated_Source\PSoC4/CyLib.c **** /*******************************************************************************
2042:.\Generated_Source\PSoC4/CyLib.c **** * Function Name: CySysGetResetReason
2043:.\Generated_Source\PSoC4/CyLib.c **** ****************************************************************************//**
2044:.\Generated_Source\PSoC4/CyLib.c **** *
2045:.\Generated_Source\PSoC4/CyLib.c **** *  Reports the cause for the latest reset(s) that occurred in the system. All
2046:.\Generated_Source\PSoC4/CyLib.c **** *  the bits in the RES_CAUSE register assert when the corresponding reset cause
2047:.\Generated_Source\PSoC4/CyLib.c **** *  occurs and must be cleared by the firmware. These bits are cleared by the
2048:.\Generated_Source\PSoC4/CyLib.c **** *  hardware only during XRES, POR, or a detected brown-out.
2049:.\Generated_Source\PSoC4/CyLib.c **** *
2050:.\Generated_Source\PSoC4/CyLib.c **** *  \param reason: bits in the RES_CAUSE register to clear.
2051:.\Generated_Source\PSoC4/CyLib.c **** *   CY_SYS_RESET_WDT       - WDT caused a reset
2052:.\Generated_Source\PSoC4/CyLib.c **** *   CY_SYS_RESET_PROTFAULT - Occured protection violation that requires reset
2053:.\Generated_Source\PSoC4/CyLib.c **** *   CY_SYS_RESET_SW        - Cortex-M0 requested a system reset.
2054:.\Generated_Source\PSoC4/CyLib.c **** *
2055:.\Generated_Source\PSoC4/CyLib.c **** * \return
2056:.\Generated_Source\PSoC4/CyLib.c **** *  Status. Same enumerated bit values as used for the reason parameter.
2057:.\Generated_Source\PSoC4/CyLib.c **** *
2058:.\Generated_Source\PSoC4/CyLib.c **** *******************************************************************************/
2059:.\Generated_Source\PSoC4/CyLib.c **** uint32 CySysGetResetReason(uint32 reason)
2060:.\Generated_Source\PSoC4/CyLib.c **** {
 254              		.loc 1 2060 0
 255              		.cfi_startproc
 256              	.LVL18:
 257 0000 021C     		mov	r2, r0
2061:.\Generated_Source\PSoC4/CyLib.c ****     uint32 returnStatus;
2062:.\Generated_Source\PSoC4/CyLib.c **** 
2063:.\Generated_Source\PSoC4/CyLib.c ****     reason &= (CY_SYS_RESET_WDT | CY_SYS_RESET_PROTFAULT | CY_SYS_RESET_SW);
 258              		.loc 1 2063 0
 259 0002 1920     		mov	r0, #25
 260              	.LVL19:
 261 0004 0240     		and	r2, r0
 262              	.LVL20:
2064:.\Generated_Source\PSoC4/CyLib.c ****     returnStatus = CY_SYS_RES_CAUSE_REG &
 263              		.loc 1 2064 0
 264 0006 0249     		ldr	r1, .L20
 265 0008 0B68     		ldr	r3, [r1]
 266 000a 1840     		and	r0, r3
 267              	.LVL21:
2065:.\Generated_Source\PSoC4/CyLib.c ****                   (CY_SYS_RESET_WDT | CY_SYS_RESET_PROTFAULT | CY_SYS_RESET_SW);
2066:.\Generated_Source\PSoC4/CyLib.c ****     CY_SYS_RES_CAUSE_REG = reason;
ARM GAS  C:\Users\SPITFI~1\AppData\Local\Temp\ccTvxQXd.s 			page 42


 268              		.loc 1 2066 0
 269 000c 0A60     		str	r2, [r1]
2067:.\Generated_Source\PSoC4/CyLib.c **** 
2068:.\Generated_Source\PSoC4/CyLib.c ****     return (returnStatus);
2069:.\Generated_Source\PSoC4/CyLib.c **** }
 270              		.loc 1 2069 0
 271              		@ sp needed
 272 000e 7047     		bx	lr
 273              	.L21:
 274              		.align	2
 275              	.L20:
 276 0010 54000340 		.word	1073938516
 277              		.cfi_endproc
 278              	.LFE7:
 279              		.size	CySysGetResetReason, .-CySysGetResetReason
 280              		.section	.text.CyDisableInts,"ax",%progbits
 281              		.align	2
 282              		.global	CyDisableInts
 283              		.code	16
 284              		.thumb_func
 285              		.type	CyDisableInts, %function
 286              	CyDisableInts:
 287              	.LFB8:
2070:.\Generated_Source\PSoC4/CyLib.c **** 
2071:.\Generated_Source\PSoC4/CyLib.c **** 
2072:.\Generated_Source\PSoC4/CyLib.c **** /*******************************************************************************
2073:.\Generated_Source\PSoC4/CyLib.c **** * Function Name: CyDisableInts
2074:.\Generated_Source\PSoC4/CyLib.c **** ****************************************************************************//**
2075:.\Generated_Source\PSoC4/CyLib.c **** *
2076:.\Generated_Source\PSoC4/CyLib.c **** *  Disables all interrupts.
2077:.\Generated_Source\PSoC4/CyLib.c **** *
2078:.\Generated_Source\PSoC4/CyLib.c **** * \return
2079:.\Generated_Source\PSoC4/CyLib.c **** *  32 bit mask of previously enabled interrupts.
2080:.\Generated_Source\PSoC4/CyLib.c **** *
2081:.\Generated_Source\PSoC4/CyLib.c **** *******************************************************************************/
2082:.\Generated_Source\PSoC4/CyLib.c **** uint32 CyDisableInts(void)
2083:.\Generated_Source\PSoC4/CyLib.c **** {
 288              		.loc 1 2083 0
 289              		.cfi_startproc
2084:.\Generated_Source\PSoC4/CyLib.c ****     uint32 intState;
2085:.\Generated_Source\PSoC4/CyLib.c **** 
2086:.\Generated_Source\PSoC4/CyLib.c ****     /* Get current interrupt state. */
2087:.\Generated_Source\PSoC4/CyLib.c ****     intState = CY_INT_CLEAR_REG;
 290              		.loc 1 2087 0
 291 0000 024B     		ldr	r3, .L23
 292 0002 1868     		ldr	r0, [r3]
 293              	.LVL22:
2088:.\Generated_Source\PSoC4/CyLib.c **** 
2089:.\Generated_Source\PSoC4/CyLib.c ****     /* Disable all interrupts. */
2090:.\Generated_Source\PSoC4/CyLib.c ****     CY_INT_CLEAR_REG = CY_INT_CLEAR_DISABLE_ALL;
 294              		.loc 1 2090 0
 295 0004 0122     		mov	r2, #1
 296 0006 5242     		neg	r2, r2
 297 0008 1A60     		str	r2, [r3]
2091:.\Generated_Source\PSoC4/CyLib.c **** 
2092:.\Generated_Source\PSoC4/CyLib.c ****     return (intState);
2093:.\Generated_Source\PSoC4/CyLib.c **** }
ARM GAS  C:\Users\SPITFI~1\AppData\Local\Temp\ccTvxQXd.s 			page 43


 298              		.loc 1 2093 0
 299              		@ sp needed
 300 000a 7047     		bx	lr
 301              	.L24:
 302              		.align	2
 303              	.L23:
 304 000c 80E100E0 		.word	-536813184
 305              		.cfi_endproc
 306              	.LFE8:
 307              		.size	CyDisableInts, .-CyDisableInts
 308              		.section	.text.CyEnableInts,"ax",%progbits
 309              		.align	2
 310              		.global	CyEnableInts
 311              		.code	16
 312              		.thumb_func
 313              		.type	CyEnableInts, %function
 314              	CyEnableInts:
 315              	.LFB9:
2094:.\Generated_Source\PSoC4/CyLib.c **** 
2095:.\Generated_Source\PSoC4/CyLib.c **** 
2096:.\Generated_Source\PSoC4/CyLib.c **** /*******************************************************************************
2097:.\Generated_Source\PSoC4/CyLib.c **** * Function Name: CyEnableInts
2098:.\Generated_Source\PSoC4/CyLib.c **** ****************************************************************************//**
2099:.\Generated_Source\PSoC4/CyLib.c **** *
2100:.\Generated_Source\PSoC4/CyLib.c **** *  Enables interrupts to a given state.
2101:.\Generated_Source\PSoC4/CyLib.c **** *
2102:.\Generated_Source\PSoC4/CyLib.c **** *  \param mask The 32 bit mask of interrupts to enable.
2103:.\Generated_Source\PSoC4/CyLib.c **** *
2104:.\Generated_Source\PSoC4/CyLib.c **** *******************************************************************************/
2105:.\Generated_Source\PSoC4/CyLib.c **** void CyEnableInts(uint32 mask)
2106:.\Generated_Source\PSoC4/CyLib.c **** {
 316              		.loc 1 2106 0
 317              		.cfi_startproc
 318              	.LVL23:
2107:.\Generated_Source\PSoC4/CyLib.c ****     CY_INT_ENABLE_REG = mask;
 319              		.loc 1 2107 0
 320 0000 014B     		ldr	r3, .L26
 321 0002 1860     		str	r0, [r3]
2108:.\Generated_Source\PSoC4/CyLib.c **** }
 322              		.loc 1 2108 0
 323              		@ sp needed
 324 0004 7047     		bx	lr
 325              	.L27:
 326 0006 C046     		.align	2
 327              	.L26:
 328 0008 00E100E0 		.word	-536813312
 329              		.cfi_endproc
 330              	.LFE9:
 331              		.size	CyEnableInts, .-CyEnableInts
 332              		.section	.text.CyIntEnable,"ax",%progbits
 333              		.align	2
 334              		.global	CyIntEnable
 335              		.code	16
 336              		.thumb_func
 337              		.type	CyIntEnable, %function
 338              	CyIntEnable:
 339              	.LFB16:
ARM GAS  C:\Users\SPITFI~1\AppData\Local\Temp\ccTvxQXd.s 			page 44


2109:.\Generated_Source\PSoC4/CyLib.c **** 
2110:.\Generated_Source\PSoC4/CyLib.c **** 
2111:.\Generated_Source\PSoC4/CyLib.c **** /*******************************************************************************
2112:.\Generated_Source\PSoC4/CyLib.c **** * Function Name: CyIntSetSysVector
2113:.\Generated_Source\PSoC4/CyLib.c **** ****************************************************************************//**
2114:.\Generated_Source\PSoC4/CyLib.c **** *
2115:.\Generated_Source\PSoC4/CyLib.c **** *  Sets the interrupt vector of the specified system interrupt number. These
2116:.\Generated_Source\PSoC4/CyLib.c **** *  interrupts are for SysTick, PendSV and others.
2117:.\Generated_Source\PSoC4/CyLib.c **** *
2118:.\Generated_Source\PSoC4/CyLib.c **** *  \param number: System interrupt number:
2119:.\Generated_Source\PSoC4/CyLib.c **** *    CY_INT_NMI_IRQN        - Non Maskable Interrupt
2120:.\Generated_Source\PSoC4/CyLib.c **** *    CY_INT_HARD_FAULT_IRQN - Hard Fault Interrupt
2121:.\Generated_Source\PSoC4/CyLib.c **** *    CY_INT_SVCALL_IRQN     - SV Call Interrupt
2122:.\Generated_Source\PSoC4/CyLib.c **** *    CY_INT_PEND_SV_IRQN    - Pend SV Interrupt
2123:.\Generated_Source\PSoC4/CyLib.c **** *    CY_INT_SYSTICK_IRQN    - System Tick Interrupt
2124:.\Generated_Source\PSoC4/CyLib.c **** *
2125:.\Generated_Source\PSoC4/CyLib.c **** *  \param address Pointer to an interrupt service routine.
2126:.\Generated_Source\PSoC4/CyLib.c **** *
2127:.\Generated_Source\PSoC4/CyLib.c **** * \return The old ISR vector at this location.
2128:.\Generated_Source\PSoC4/CyLib.c **** *
2129:.\Generated_Source\PSoC4/CyLib.c **** *******************************************************************************/
2130:.\Generated_Source\PSoC4/CyLib.c **** cyisraddress CyIntSetSysVector(uint8 number, cyisraddress address)
2131:.\Generated_Source\PSoC4/CyLib.c **** {
2132:.\Generated_Source\PSoC4/CyLib.c ****     cyisraddress oldIsr;
2133:.\Generated_Source\PSoC4/CyLib.c ****     cyisraddress *ramVectorTable = (cyisraddress *) CY_INT_VECT_TABLE;
2134:.\Generated_Source\PSoC4/CyLib.c **** 
2135:.\Generated_Source\PSoC4/CyLib.c ****     CYASSERT(number < CY_INT_IRQ_BASE);
2136:.\Generated_Source\PSoC4/CyLib.c **** 
2137:.\Generated_Source\PSoC4/CyLib.c ****     /* Save old Interrupt service routine. */
2138:.\Generated_Source\PSoC4/CyLib.c ****     oldIsr = ramVectorTable[number];
2139:.\Generated_Source\PSoC4/CyLib.c **** 
2140:.\Generated_Source\PSoC4/CyLib.c ****     /* Set new Interrupt service routine. */
2141:.\Generated_Source\PSoC4/CyLib.c ****     ramVectorTable[number] = address;
2142:.\Generated_Source\PSoC4/CyLib.c **** 
2143:.\Generated_Source\PSoC4/CyLib.c ****     return(oldIsr);
2144:.\Generated_Source\PSoC4/CyLib.c **** }
2145:.\Generated_Source\PSoC4/CyLib.c **** 
2146:.\Generated_Source\PSoC4/CyLib.c **** 
2147:.\Generated_Source\PSoC4/CyLib.c **** /*******************************************************************************
2148:.\Generated_Source\PSoC4/CyLib.c **** * Function Name: CyIntGetSysVector
2149:.\Generated_Source\PSoC4/CyLib.c **** ****************************************************************************//**
2150:.\Generated_Source\PSoC4/CyLib.c **** *
2151:.\Generated_Source\PSoC4/CyLib.c **** *   Gets the interrupt vector of the specified system interrupt number. These
2152:.\Generated_Source\PSoC4/CyLib.c **** *   interrupts are for SysTick, PendSV and others.
2153:.\Generated_Source\PSoC4/CyLib.c **** *
2154:.\Generated_Source\PSoC4/CyLib.c **** *  \param number: System interrupt number:
2155:.\Generated_Source\PSoC4/CyLib.c **** *    CY_INT_NMI_IRQN        - Non Maskable Interrupt
2156:.\Generated_Source\PSoC4/CyLib.c **** *    CY_INT_HARD_FAULT_IRQN - Hard Fault Interrupt
2157:.\Generated_Source\PSoC4/CyLib.c **** *    CY_INT_SVCALL_IRQN     - SV Call Interrupt
2158:.\Generated_Source\PSoC4/CyLib.c **** *    CY_INT_PEND_SV_IRQN    - Pend SV Interrupt
2159:.\Generated_Source\PSoC4/CyLib.c **** *    CY_INT_SYSTICK_IRQN    - System Tick Interrupt
2160:.\Generated_Source\PSoC4/CyLib.c **** *
2161:.\Generated_Source\PSoC4/CyLib.c **** * \return Address of the ISR in the interrupt vector table.
2162:.\Generated_Source\PSoC4/CyLib.c **** *
2163:.\Generated_Source\PSoC4/CyLib.c **** *******************************************************************************/
2164:.\Generated_Source\PSoC4/CyLib.c **** cyisraddress CyIntGetSysVector(uint8 number)
2165:.\Generated_Source\PSoC4/CyLib.c **** {
ARM GAS  C:\Users\SPITFI~1\AppData\Local\Temp\ccTvxQXd.s 			page 45


2166:.\Generated_Source\PSoC4/CyLib.c ****     cyisraddress *ramVectorTable = (cyisraddress *) CY_INT_VECT_TABLE;
2167:.\Generated_Source\PSoC4/CyLib.c **** 
2168:.\Generated_Source\PSoC4/CyLib.c ****     CYASSERT(number < CY_INT_IRQ_BASE);
2169:.\Generated_Source\PSoC4/CyLib.c **** 
2170:.\Generated_Source\PSoC4/CyLib.c ****     return(ramVectorTable[number]);
2171:.\Generated_Source\PSoC4/CyLib.c **** }
2172:.\Generated_Source\PSoC4/CyLib.c **** 
2173:.\Generated_Source\PSoC4/CyLib.c **** 
2174:.\Generated_Source\PSoC4/CyLib.c **** /*******************************************************************************
2175:.\Generated_Source\PSoC4/CyLib.c **** * Function Name: CyIntSetVector
2176:.\Generated_Source\PSoC4/CyLib.c **** ****************************************************************************//**
2177:.\Generated_Source\PSoC4/CyLib.c **** *
2178:.\Generated_Source\PSoC4/CyLib.c **** *  Sets the interrupt vector of the specified interrupt number.
2179:.\Generated_Source\PSoC4/CyLib.c **** *
2180:.\Generated_Source\PSoC4/CyLib.c **** *  \param number Valid range [0-31].  Interrupt number
2181:.\Generated_Source\PSoC4/CyLib.c **** *  \param address Pointer to an interrupt service routine
2182:.\Generated_Source\PSoC4/CyLib.c **** *
2183:.\Generated_Source\PSoC4/CyLib.c **** * \return Previous interrupt vector value.
2184:.\Generated_Source\PSoC4/CyLib.c **** *
2185:.\Generated_Source\PSoC4/CyLib.c **** *******************************************************************************/
2186:.\Generated_Source\PSoC4/CyLib.c **** cyisraddress CyIntSetVector(uint8 number, cyisraddress address)
2187:.\Generated_Source\PSoC4/CyLib.c **** {
2188:.\Generated_Source\PSoC4/CyLib.c ****     cyisraddress oldIsr;
2189:.\Generated_Source\PSoC4/CyLib.c ****     cyisraddress *ramVectorTable = (cyisraddress *) CY_INT_VECT_TABLE;
2190:.\Generated_Source\PSoC4/CyLib.c **** 
2191:.\Generated_Source\PSoC4/CyLib.c ****     CYASSERT(number < CY_NUM_INTERRUPTS);
2192:.\Generated_Source\PSoC4/CyLib.c **** 
2193:.\Generated_Source\PSoC4/CyLib.c ****     /* Save old Interrupt service routine. */
2194:.\Generated_Source\PSoC4/CyLib.c ****     oldIsr = ramVectorTable[CY_INT_IRQ_BASE + number];
2195:.\Generated_Source\PSoC4/CyLib.c **** 
2196:.\Generated_Source\PSoC4/CyLib.c ****     /* Set new Interrupt service routine. */
2197:.\Generated_Source\PSoC4/CyLib.c ****     ramVectorTable[CY_INT_IRQ_BASE + number] = address;
2198:.\Generated_Source\PSoC4/CyLib.c **** 
2199:.\Generated_Source\PSoC4/CyLib.c ****     return(oldIsr);
2200:.\Generated_Source\PSoC4/CyLib.c **** }
2201:.\Generated_Source\PSoC4/CyLib.c **** 
2202:.\Generated_Source\PSoC4/CyLib.c **** 
2203:.\Generated_Source\PSoC4/CyLib.c **** /*******************************************************************************
2204:.\Generated_Source\PSoC4/CyLib.c **** * Function Name: CyIntGetVector
2205:.\Generated_Source\PSoC4/CyLib.c **** ****************************************************************************//**
2206:.\Generated_Source\PSoC4/CyLib.c **** *
2207:.\Generated_Source\PSoC4/CyLib.c **** *  Gets the interrupt vector of the specified interrupt number.
2208:.\Generated_Source\PSoC4/CyLib.c **** *
2209:.\Generated_Source\PSoC4/CyLib.c **** *  \param number: Valid range [0-31].  Interrupt number
2210:.\Generated_Source\PSoC4/CyLib.c **** *
2211:.\Generated_Source\PSoC4/CyLib.c **** * \return Address of the ISR in the interrupt vector table.
2212:.\Generated_Source\PSoC4/CyLib.c **** *
2213:.\Generated_Source\PSoC4/CyLib.c **** *******************************************************************************/
2214:.\Generated_Source\PSoC4/CyLib.c **** cyisraddress CyIntGetVector(uint8 number)
2215:.\Generated_Source\PSoC4/CyLib.c **** {
2216:.\Generated_Source\PSoC4/CyLib.c ****     cyisraddress *ramVectorTable = (cyisraddress *) CY_INT_VECT_TABLE;
2217:.\Generated_Source\PSoC4/CyLib.c **** 
2218:.\Generated_Source\PSoC4/CyLib.c ****     CYASSERT(number < CY_NUM_INTERRUPTS);
2219:.\Generated_Source\PSoC4/CyLib.c **** 
2220:.\Generated_Source\PSoC4/CyLib.c ****     return (ramVectorTable[CY_INT_IRQ_BASE + number]);
2221:.\Generated_Source\PSoC4/CyLib.c **** }
2222:.\Generated_Source\PSoC4/CyLib.c **** 
ARM GAS  C:\Users\SPITFI~1\AppData\Local\Temp\ccTvxQXd.s 			page 46


2223:.\Generated_Source\PSoC4/CyLib.c **** /*******************************************************************************
2224:.\Generated_Source\PSoC4/CyLib.c **** * Function Name: CyIntSetPriority
2225:.\Generated_Source\PSoC4/CyLib.c **** ****************************************************************************//**
2226:.\Generated_Source\PSoC4/CyLib.c **** *
2227:.\Generated_Source\PSoC4/CyLib.c **** *  Sets the priority of the interrupt.
2228:.\Generated_Source\PSoC4/CyLib.c **** *
2229:.\Generated_Source\PSoC4/CyLib.c **** *  \param priority: Priority of the interrupt. 0 - 3, 0 being the highest.
2230:.\Generated_Source\PSoC4/CyLib.c **** *  \param number: The number of the interrupt, 0 - 31.
2231:.\Generated_Source\PSoC4/CyLib.c **** *
2232:.\Generated_Source\PSoC4/CyLib.c **** *******************************************************************************/
2233:.\Generated_Source\PSoC4/CyLib.c **** void CyIntSetPriority(uint8 number, uint8 priority)
2234:.\Generated_Source\PSoC4/CyLib.c **** {
2235:.\Generated_Source\PSoC4/CyLib.c ****     uint8 interruptState;
2236:.\Generated_Source\PSoC4/CyLib.c ****     uint32 shift;
2237:.\Generated_Source\PSoC4/CyLib.c ****     uint32 value;
2238:.\Generated_Source\PSoC4/CyLib.c **** 
2239:.\Generated_Source\PSoC4/CyLib.c ****     CYASSERT(priority <= CY_MIN_PRIORITY);
2240:.\Generated_Source\PSoC4/CyLib.c ****     CYASSERT(number < CY_NUM_INTERRUPTS);
2241:.\Generated_Source\PSoC4/CyLib.c **** 
2242:.\Generated_Source\PSoC4/CyLib.c ****     shift = CY_INT_PRIORITY_SHIFT(number);
2243:.\Generated_Source\PSoC4/CyLib.c **** 
2244:.\Generated_Source\PSoC4/CyLib.c ****     interruptState = CyEnterCriticalSection();
2245:.\Generated_Source\PSoC4/CyLib.c **** 
2246:.\Generated_Source\PSoC4/CyLib.c ****     value = CY_INT_PRIORITY_REG(number);
2247:.\Generated_Source\PSoC4/CyLib.c ****     value &= (uint32)(~((uint32)(CY_INT_PRIORITY_MASK << shift)));
2248:.\Generated_Source\PSoC4/CyLib.c ****     value |= ((uint32)priority << shift);
2249:.\Generated_Source\PSoC4/CyLib.c ****     CY_INT_PRIORITY_REG(number) = value;
2250:.\Generated_Source\PSoC4/CyLib.c **** 
2251:.\Generated_Source\PSoC4/CyLib.c ****     CyExitCriticalSection(interruptState);
2252:.\Generated_Source\PSoC4/CyLib.c **** }
2253:.\Generated_Source\PSoC4/CyLib.c **** 
2254:.\Generated_Source\PSoC4/CyLib.c **** 
2255:.\Generated_Source\PSoC4/CyLib.c **** /*******************************************************************************
2256:.\Generated_Source\PSoC4/CyLib.c **** * Function Name: CyIntGetPriority
2257:.\Generated_Source\PSoC4/CyLib.c **** ****************************************************************************//**
2258:.\Generated_Source\PSoC4/CyLib.c **** *
2259:.\Generated_Source\PSoC4/CyLib.c **** *  Gets the priority of the interrupt.
2260:.\Generated_Source\PSoC4/CyLib.c **** *
2261:.\Generated_Source\PSoC4/CyLib.c **** *  \param number: The number of the interrupt, 0 - 31.
2262:.\Generated_Source\PSoC4/CyLib.c **** *
2263:.\Generated_Source\PSoC4/CyLib.c **** * \return
2264:.\Generated_Source\PSoC4/CyLib.c **** *  Priority of the interrupt. 0 - 3, 0 being the highest.
2265:.\Generated_Source\PSoC4/CyLib.c **** *
2266:.\Generated_Source\PSoC4/CyLib.c **** *******************************************************************************/
2267:.\Generated_Source\PSoC4/CyLib.c **** uint8 CyIntGetPriority(uint8 number)
2268:.\Generated_Source\PSoC4/CyLib.c **** {
2269:.\Generated_Source\PSoC4/CyLib.c ****     uint8 priority;
2270:.\Generated_Source\PSoC4/CyLib.c **** 
2271:.\Generated_Source\PSoC4/CyLib.c ****     CYASSERT(number < CY_NUM_INTERRUPTS);
2272:.\Generated_Source\PSoC4/CyLib.c **** 
2273:.\Generated_Source\PSoC4/CyLib.c ****     priority = (uint8) (CY_INT_PRIORITY_REG(number) >> CY_INT_PRIORITY_SHIFT(number));
2274:.\Generated_Source\PSoC4/CyLib.c **** 
2275:.\Generated_Source\PSoC4/CyLib.c ****     return (priority & (uint8) CY_INT_PRIORITY_MASK);
2276:.\Generated_Source\PSoC4/CyLib.c **** }
2277:.\Generated_Source\PSoC4/CyLib.c **** 
2278:.\Generated_Source\PSoC4/CyLib.c **** 
2279:.\Generated_Source\PSoC4/CyLib.c **** /*******************************************************************************
ARM GAS  C:\Users\SPITFI~1\AppData\Local\Temp\ccTvxQXd.s 			page 47


2280:.\Generated_Source\PSoC4/CyLib.c **** * Function Name: CyIntEnable
2281:.\Generated_Source\PSoC4/CyLib.c **** ****************************************************************************//**
2282:.\Generated_Source\PSoC4/CyLib.c **** *
2283:.\Generated_Source\PSoC4/CyLib.c **** *  Enables the specified interrupt number.
2284:.\Generated_Source\PSoC4/CyLib.c **** *
2285:.\Generated_Source\PSoC4/CyLib.c **** *  \param number: Valid range [0-31].  Interrupt number
2286:.\Generated_Source\PSoC4/CyLib.c **** *
2287:.\Generated_Source\PSoC4/CyLib.c **** *******************************************************************************/
2288:.\Generated_Source\PSoC4/CyLib.c **** void CyIntEnable(uint8 number)
2289:.\Generated_Source\PSoC4/CyLib.c **** {
 340              		.loc 1 2289 0
 341              		.cfi_startproc
 342              	.LVL24:
2290:.\Generated_Source\PSoC4/CyLib.c ****     CY_INT_ENABLE_REG = ((uint32) 0x01u << (CY_INT_ENABLE_RANGE_MASK & number));
 343              		.loc 1 2290 0
 344 0000 1F23     		mov	r3, #31
 345 0002 1840     		and	r0, r3
 346              	.LVL25:
 347 0004 1E3B     		sub	r3, r3, #30
 348 0006 8340     		lsl	r3, r3, r0
 349 0008 181C     		mov	r0, r3
 350 000a 014B     		ldr	r3, .L29
 351 000c 1860     		str	r0, [r3]
2291:.\Generated_Source\PSoC4/CyLib.c **** }
 352              		.loc 1 2291 0
 353              		@ sp needed
 354 000e 7047     		bx	lr
 355              	.L30:
 356              		.align	2
 357              	.L29:
 358 0010 00E100E0 		.word	-536813312
 359              		.cfi_endproc
 360              	.LFE16:
 361              		.size	CyIntEnable, .-CyIntEnable
 362              		.section	.text.CyIntGetState,"ax",%progbits
 363              		.align	2
 364              		.global	CyIntGetState
 365              		.code	16
 366              		.thumb_func
 367              		.type	CyIntGetState, %function
 368              	CyIntGetState:
 369              	.LFB17:
2292:.\Generated_Source\PSoC4/CyLib.c **** 
2293:.\Generated_Source\PSoC4/CyLib.c **** 
2294:.\Generated_Source\PSoC4/CyLib.c **** /*******************************************************************************
2295:.\Generated_Source\PSoC4/CyLib.c **** * Function Name: CyIntGetState
2296:.\Generated_Source\PSoC4/CyLib.c **** ****************************************************************************//**
2297:.\Generated_Source\PSoC4/CyLib.c **** *
2298:.\Generated_Source\PSoC4/CyLib.c **** *  Gets the enable state of the specified interrupt number.
2299:.\Generated_Source\PSoC4/CyLib.c **** *
2300:.\Generated_Source\PSoC4/CyLib.c **** *  \param number: Valid range [0-31].  Interrupt number.
2301:.\Generated_Source\PSoC4/CyLib.c **** *
2302:.\Generated_Source\PSoC4/CyLib.c **** * \return
2303:.\Generated_Source\PSoC4/CyLib.c **** *  Enable status: 1 if enabled, 0 if disabled
2304:.\Generated_Source\PSoC4/CyLib.c **** *
2305:.\Generated_Source\PSoC4/CyLib.c **** *******************************************************************************/
2306:.\Generated_Source\PSoC4/CyLib.c **** uint8 CyIntGetState(uint8 number)
ARM GAS  C:\Users\SPITFI~1\AppData\Local\Temp\ccTvxQXd.s 			page 48


2307:.\Generated_Source\PSoC4/CyLib.c **** {
 370              		.loc 1 2307 0
 371              		.cfi_startproc
 372              	.LVL26:
2308:.\Generated_Source\PSoC4/CyLib.c ****     /* Get state of interrupt. */
2309:.\Generated_Source\PSoC4/CyLib.c ****     return ((0u != (CY_INT_ENABLE_REG & ((uint32) 0x01u << (CY_INT_ENABLE_RANGE_MASK & number)))) ?
 373              		.loc 1 2309 0
 374 0000 044B     		ldr	r3, .L32
 375 0002 1B68     		ldr	r3, [r3]
 376 0004 1F22     		mov	r2, #31
 377 0006 1040     		and	r0, r2
 378              	.LVL27:
 379 0008 C340     		lsr	r3, r3, r0
 380 000a 181C     		mov	r0, r3
 381 000c 0123     		mov	r3, #1
 382 000e 1840     		and	r0, r3
2310:.\Generated_Source\PSoC4/CyLib.c **** }
 383              		.loc 1 2310 0
 384              		@ sp needed
 385 0010 7047     		bx	lr
 386              	.L33:
 387 0012 C046     		.align	2
 388              	.L32:
 389 0014 00E100E0 		.word	-536813312
 390              		.cfi_endproc
 391              	.LFE17:
 392              		.size	CyIntGetState, .-CyIntGetState
 393              		.section	.text.CyIntDisable,"ax",%progbits
 394              		.align	2
 395              		.global	CyIntDisable
 396              		.code	16
 397              		.thumb_func
 398              		.type	CyIntDisable, %function
 399              	CyIntDisable:
 400              	.LFB18:
2311:.\Generated_Source\PSoC4/CyLib.c **** 
2312:.\Generated_Source\PSoC4/CyLib.c **** 
2313:.\Generated_Source\PSoC4/CyLib.c **** /*******************************************************************************
2314:.\Generated_Source\PSoC4/CyLib.c **** * Function Name: CyIntDisable
2315:.\Generated_Source\PSoC4/CyLib.c **** ****************************************************************************//**
2316:.\Generated_Source\PSoC4/CyLib.c **** *
2317:.\Generated_Source\PSoC4/CyLib.c **** *   Disables the specified interrupt number.
2318:.\Generated_Source\PSoC4/CyLib.c **** *
2319:.\Generated_Source\PSoC4/CyLib.c **** *   \param number: Valid range [0-31].  Interrupt number.
2320:.\Generated_Source\PSoC4/CyLib.c **** *
2321:.\Generated_Source\PSoC4/CyLib.c **** *******************************************************************************/
2322:.\Generated_Source\PSoC4/CyLib.c **** void CyIntDisable(uint8 number)
2323:.\Generated_Source\PSoC4/CyLib.c **** {
 401              		.loc 1 2323 0
 402              		.cfi_startproc
 403              	.LVL28:
2324:.\Generated_Source\PSoC4/CyLib.c ****     CY_INT_CLEAR_REG = ((uint32) 0x01u << (CY_INT_ENABLE_RANGE_MASK & number));
 404              		.loc 1 2324 0
 405 0000 1F23     		mov	r3, #31
 406 0002 1840     		and	r0, r3
 407              	.LVL29:
 408 0004 1E3B     		sub	r3, r3, #30
ARM GAS  C:\Users\SPITFI~1\AppData\Local\Temp\ccTvxQXd.s 			page 49


 409 0006 8340     		lsl	r3, r3, r0
 410 0008 181C     		mov	r0, r3
 411 000a 014B     		ldr	r3, .L35
 412 000c 1860     		str	r0, [r3]
2325:.\Generated_Source\PSoC4/CyLib.c **** }
 413              		.loc 1 2325 0
 414              		@ sp needed
 415 000e 7047     		bx	lr
 416              	.L36:
 417              		.align	2
 418              	.L35:
 419 0010 80E100E0 		.word	-536813184
 420              		.cfi_endproc
 421              	.LFE18:
 422              		.size	CyIntDisable, .-CyIntDisable
 423              		.section	.text.CyIntSetPending,"ax",%progbits
 424              		.align	2
 425              		.global	CyIntSetPending
 426              		.code	16
 427              		.thumb_func
 428              		.type	CyIntSetPending, %function
 429              	CyIntSetPending:
 430              	.LFB19:
2326:.\Generated_Source\PSoC4/CyLib.c **** 
2327:.\Generated_Source\PSoC4/CyLib.c **** /*******************************************************************************
2328:.\Generated_Source\PSoC4/CyLib.c **** * Function Name: CyIntSetPending
2329:.\Generated_Source\PSoC4/CyLib.c **** ****************************************************************************//**
2330:.\Generated_Source\PSoC4/CyLib.c **** *
2331:.\Generated_Source\PSoC4/CyLib.c **** *  Forces the specified interrupt number to be pending.
2332:.\Generated_Source\PSoC4/CyLib.c **** *
2333:.\Generated_Source\PSoC4/CyLib.c **** *  \param number: Valid range [0-31].  Interrupt number.
2334:.\Generated_Source\PSoC4/CyLib.c **** *
2335:.\Generated_Source\PSoC4/CyLib.c **** *******************************************************************************/
2336:.\Generated_Source\PSoC4/CyLib.c **** void CyIntSetPending(uint8 number)
2337:.\Generated_Source\PSoC4/CyLib.c **** {
 431              		.loc 1 2337 0
 432              		.cfi_startproc
 433              	.LVL30:
2338:.\Generated_Source\PSoC4/CyLib.c ****     CY_INT_SET_PEND_REG = ((uint32) 0x01u << (CY_INT_ENABLE_RANGE_MASK & number));
 434              		.loc 1 2338 0
 435 0000 1F23     		mov	r3, #31
 436 0002 1840     		and	r0, r3
 437              	.LVL31:
 438 0004 1E3B     		sub	r3, r3, #30
 439 0006 8340     		lsl	r3, r3, r0
 440 0008 181C     		mov	r0, r3
 441 000a 014B     		ldr	r3, .L38
 442 000c 1860     		str	r0, [r3]
2339:.\Generated_Source\PSoC4/CyLib.c **** }
 443              		.loc 1 2339 0
 444              		@ sp needed
 445 000e 7047     		bx	lr
 446              	.L39:
 447              		.align	2
 448              	.L38:
 449 0010 00E200E0 		.word	-536813056
 450              		.cfi_endproc
ARM GAS  C:\Users\SPITFI~1\AppData\Local\Temp\ccTvxQXd.s 			page 50


 451              	.LFE19:
 452              		.size	CyIntSetPending, .-CyIntSetPending
 453              		.section	.text.CyIntClearPending,"ax",%progbits
 454              		.align	2
 455              		.global	CyIntClearPending
 456              		.code	16
 457              		.thumb_func
 458              		.type	CyIntClearPending, %function
 459              	CyIntClearPending:
 460              	.LFB20:
2340:.\Generated_Source\PSoC4/CyLib.c **** 
2341:.\Generated_Source\PSoC4/CyLib.c **** 
2342:.\Generated_Source\PSoC4/CyLib.c **** /*******************************************************************************
2343:.\Generated_Source\PSoC4/CyLib.c **** * Function Name: CyIntClearPending
2344:.\Generated_Source\PSoC4/CyLib.c **** ****************************************************************************//**
2345:.\Generated_Source\PSoC4/CyLib.c **** *
2346:.\Generated_Source\PSoC4/CyLib.c **** *  Clears any pending interrupt for the specified interrupt number.
2347:.\Generated_Source\PSoC4/CyLib.c **** *
2348:.\Generated_Source\PSoC4/CyLib.c **** *  \param number: Valid range [0-31].  Interrupt number.
2349:.\Generated_Source\PSoC4/CyLib.c **** *
2350:.\Generated_Source\PSoC4/CyLib.c **** *******************************************************************************/
2351:.\Generated_Source\PSoC4/CyLib.c **** void CyIntClearPending(uint8 number)
2352:.\Generated_Source\PSoC4/CyLib.c **** {
 461              		.loc 1 2352 0
 462              		.cfi_startproc
 463              	.LVL32:
2353:.\Generated_Source\PSoC4/CyLib.c ****     CY_INT_CLR_PEND_REG = ((uint32) 0x01u << (CY_INT_ENABLE_RANGE_MASK & number));
 464              		.loc 1 2353 0
 465 0000 1F23     		mov	r3, #31
 466 0002 1840     		and	r0, r3
 467              	.LVL33:
 468 0004 1E3B     		sub	r3, r3, #30
 469 0006 8340     		lsl	r3, r3, r0
 470 0008 181C     		mov	r0, r3
 471 000a 014B     		ldr	r3, .L41
 472 000c 1860     		str	r0, [r3]
2354:.\Generated_Source\PSoC4/CyLib.c **** }
 473              		.loc 1 2354 0
 474              		@ sp needed
 475 000e 7047     		bx	lr
 476              	.L42:
 477              		.align	2
 478              	.L41:
 479 0010 80E200E0 		.word	-536812928
 480              		.cfi_endproc
 481              	.LFE20:
 482              		.size	CyIntClearPending, .-CyIntClearPending
 483              		.section	.text.CyHalt,"ax",%progbits
 484              		.align	2
 485              		.global	CyHalt
 486              		.code	16
 487              		.thumb_func
 488              		.type	CyHalt, %function
 489              	CyHalt:
 490              	.LFB21:
2355:.\Generated_Source\PSoC4/CyLib.c **** 
2356:.\Generated_Source\PSoC4/CyLib.c **** 
ARM GAS  C:\Users\SPITFI~1\AppData\Local\Temp\ccTvxQXd.s 			page 51


2357:.\Generated_Source\PSoC4/CyLib.c **** /*******************************************************************************
2358:.\Generated_Source\PSoC4/CyLib.c **** * Function Name: CyHalt
2359:.\Generated_Source\PSoC4/CyLib.c **** ****************************************************************************//**
2360:.\Generated_Source\PSoC4/CyLib.c **** *
2361:.\Generated_Source\PSoC4/CyLib.c **** *  Halts the CPU.
2362:.\Generated_Source\PSoC4/CyLib.c **** *
2363:.\Generated_Source\PSoC4/CyLib.c **** *  \param reason: Value to be used during debugging.
2364:.\Generated_Source\PSoC4/CyLib.c **** *
2365:.\Generated_Source\PSoC4/CyLib.c **** *******************************************************************************/
2366:.\Generated_Source\PSoC4/CyLib.c **** void CyHalt(uint8 reason)
2367:.\Generated_Source\PSoC4/CyLib.c **** {
 491              		.loc 1 2367 0
 492              		.cfi_startproc
 493              	.LVL34:
2368:.\Generated_Source\PSoC4/CyLib.c ****     if(0u != reason)
2369:.\Generated_Source\PSoC4/CyLib.c ****     {
2370:.\Generated_Source\PSoC4/CyLib.c ****         /* To remove unreferenced local variable warning */
2371:.\Generated_Source\PSoC4/CyLib.c ****     }
2372:.\Generated_Source\PSoC4/CyLib.c **** 
2373:.\Generated_Source\PSoC4/CyLib.c ****     #if defined (__ARMCC_VERSION)
2374:.\Generated_Source\PSoC4/CyLib.c ****         __breakpoint(0x0);
2375:.\Generated_Source\PSoC4/CyLib.c ****     #elif defined(__GNUC__) || defined (__ICCARM__)
2376:.\Generated_Source\PSoC4/CyLib.c ****         __asm("    bkpt    1");
 494              		.loc 1 2376 0
 495              	@ 2376 ".\Generated_Source\PSoC4\CyLib.c" 1
 496 0000 01BE     		    bkpt    1
 497              	@ 0 "" 2
2377:.\Generated_Source\PSoC4/CyLib.c ****     #elif defined(__C51__)
2378:.\Generated_Source\PSoC4/CyLib.c ****         CYDEV_HALT_CPU;
2379:.\Generated_Source\PSoC4/CyLib.c ****     #endif  /* (__ARMCC_VERSION) */
2380:.\Generated_Source\PSoC4/CyLib.c **** }
 498              		.loc 1 2380 0
 499              		.code	16
 500              		@ sp needed
 501 0002 7047     		bx	lr
 502              		.cfi_endproc
 503              	.LFE21:
 504              		.size	CyHalt, .-CyHalt
 505              		.section	.text.CySysClkWriteImoFreq,"ax",%progbits
 506              		.align	2
 507              		.global	CySysClkWriteImoFreq
 508              		.code	16
 509              		.thumb_func
 510              		.type	CySysClkWriteImoFreq, %function
 511              	CySysClkWriteImoFreq:
 512              	.LFB5:
 782:.\Generated_Source\PSoC4/CyLib.c ****         uint8  interruptState;
 513              		.loc 1 782 0
 514              		.cfi_startproc
 515              	.LVL35:
 516 0000 F8B5     		push	{r3, r4, r5, r6, r7, lr}
 517              		.cfi_def_cfa_offset 24
 518              		.cfi_offset 3, -24
 519              		.cfi_offset 4, -20
 520              		.cfi_offset 5, -16
 521              		.cfi_offset 6, -12
 522              		.cfi_offset 7, -8
ARM GAS  C:\Users\SPITFI~1\AppData\Local\Temp\ccTvxQXd.s 			page 52


 523              		.cfi_offset 14, -4
 524 0002 041E     		sub	r4, r0, #0
 795:.\Generated_Source\PSoC4/CyLib.c ****         #else
 525              		.loc 1 795 0
 526 0004 182C     		cmp	r4, #24
 527 0006 03D0     		beq	.L45
 795:.\Generated_Source\PSoC4/CyLib.c ****         #else
 528              		.loc 1 795 0 is_stmt 0 discriminator 1
 529 0008 2028     		cmp	r0, #32
 530 000a 01D0     		beq	.L45
 795:.\Generated_Source\PSoC4/CyLib.c ****         #else
 531              		.loc 1 795 0 discriminator 2
 532 000c 3028     		cmp	r0, #48
 533 000e 3CD1     		bne	.L46
 534              	.L45:
 802:.\Generated_Source\PSoC4/CyLib.c **** 
 535              		.loc 1 802 0 is_stmt 1
 536 0010 FFF7FEFF 		bl	CyEnterCriticalSection
 537              	.LVL36:
 538 0014 051C     		mov	r5, r0
 539              	.LVL37:
 833:.\Generated_Source\PSoC4/CyLib.c **** 
 540              		.loc 1 833 0
 541 0016 1F4A     		ldr	r2, .L49
 542 0018 1368     		ldr	r3, [r2]
 543 001a 0721     		mov	r1, #7
 544 001c 8B43     		bic	r3, r1
 545 001e 1360     		str	r3, [r2]
 851:.\Generated_Source\PSoC4/CyLib.c ****             #endif  /* (CY_IP_IMO_TRIMMABLE_BY_USB) */
 546              		.loc 1 851 0
 547 0020 1D4B     		ldr	r3, .L49+4
 548 0022 E318     		add	r3, r4, r3
 549 0024 1B78     		ldrb	r3, [r3]
 550 0026 DBB2     		uxtb	r3, r3
 551              	.LVL38:
 853:.\Generated_Source\PSoC4/CyLib.c **** 
 552              		.loc 1 853 0
 553 0028 1C4A     		ldr	r2, .L49+8
 554 002a 1360     		str	r3, [r2]
 856:.\Generated_Source\PSoC4/CyLib.c **** 
 555              		.loc 1 856 0
 556 002c 1C4A     		ldr	r2, .L49+12
 557 002e 1368     		ldr	r3, [r2]
 558              	.LVL39:
 559 0030 8B43     		bic	r3, r1
 560 0032 1360     		str	r3, [r2]
 561              	.LVL40:
 859:.\Generated_Source\PSoC4/CyLib.c ****                 (CY_SFLASH_IMO_TCTRIM_REG(freq - CY_SYS_CLK_IMO_MIN_FREQ_MHZ) & CY_SYS_CLK_IMO_TRIM
 562              		.loc 1 859 0
 563 0034 1B48     		ldr	r0, .L49+16
 564 0036 0368     		ldr	r3, [r0]
 565 0038 7F22     		mov	r2, #127
 566 003a 9343     		bic	r3, r2
 567 003c 191C     		mov	r1, r3
 860:.\Generated_Source\PSoC4/CyLib.c **** 
 568              		.loc 1 860 0
 569 003e 1A4B     		ldr	r3, .L49+20
ARM GAS  C:\Users\SPITFI~1\AppData\Local\Temp\ccTvxQXd.s 			page 53


 570 0040 E318     		add	r3, r4, r3
 571 0042 1B78     		ldrb	r3, [r3]
 572 0044 1340     		and	r3, r2
 859:.\Generated_Source\PSoC4/CyLib.c ****                 (CY_SFLASH_IMO_TCTRIM_REG(freq - CY_SYS_CLK_IMO_MIN_FREQ_MHZ) & CY_SYS_CLK_IMO_TRIM
 573              		.loc 1 859 0
 574 0046 0B43     		orr	r3, r1
 575 0048 0360     		str	r3, [r0]
 862:.\Generated_Source\PSoC4/CyLib.c **** 
 576              		.loc 1 862 0
 577 004a 3220     		mov	r0, #50
 578 004c FFF7FEFF 		bl	CyDelayCycles
 579              	.LVL41:
 864:.\Generated_Source\PSoC4/CyLib.c ****             {
 580              		.loc 1 864 0
 581 0050 182C     		cmp	r4, #24
 582 0052 16D9     		bls	.L47
 867:.\Generated_Source\PSoC4/CyLib.c ****                     (((freq - 4u - CY_SYS_CLK_IMO_MIN_FREQ_MHZ) >> 2u) & CY_SYS_CLK_IMO_SELECT_FREQ
 583              		.loc 1 867 0
 584 0054 0F4E     		ldr	r6, .L49
 585 0056 3368     		ldr	r3, [r6]
 586 0058 0727     		mov	r7, #7
 587 005a BB43     		bic	r3, r7
 588 005c 1A1C     		mov	r2, r3
 868:.\Generated_Source\PSoC4/CyLib.c **** 
 589              		.loc 1 868 0
 590 005e 231C     		mov	r3, r4
 591 0060 1C3B     		sub	r3, r3, #28
 592 0062 9B08     		lsr	r3, r3, #2
 593 0064 3B40     		and	r3, r7
 867:.\Generated_Source\PSoC4/CyLib.c ****                     (((freq - 4u - CY_SYS_CLK_IMO_MIN_FREQ_MHZ) >> 2u) & CY_SYS_CLK_IMO_SELECT_FREQ
 594              		.loc 1 867 0
 595 0066 1343     		orr	r3, r2
 596 0068 3360     		str	r3, [r6]
 870:.\Generated_Source\PSoC4/CyLib.c **** 
 597              		.loc 1 870 0
 598 006a 3220     		mov	r0, #50
 599 006c FFF7FEFF 		bl	CyDelayCycles
 600              	.LVL42:
 874:.\Generated_Source\PSoC4/CyLib.c ****                     (((freq - CY_SYS_CLK_IMO_MIN_FREQ_MHZ) >> 2u) & CY_SYS_CLK_IMO_SELECT_FREQ_MASK
 601              		.loc 1 874 0
 602 0070 3268     		ldr	r2, [r6]
 603 0072 BA43     		bic	r2, r7
 875:.\Generated_Source\PSoC4/CyLib.c ****             }
 604              		.loc 1 875 0
 605 0074 231C     		mov	r3, r4
 606 0076 183B     		sub	r3, r3, #24
 607 0078 9B08     		lsr	r3, r3, #2
 608 007a 3C1C     		mov	r4, r7
 609              	.LVL43:
 610 007c 1C40     		and	r4, r3
 874:.\Generated_Source\PSoC4/CyLib.c ****                     (((freq - CY_SYS_CLK_IMO_MIN_FREQ_MHZ) >> 2u) & CY_SYS_CLK_IMO_SELECT_FREQ_MASK
 611              		.loc 1 874 0
 612 007e 1443     		orr	r4, r2
 613 0080 3460     		str	r4, [r6]
 614              	.L47:
 893:.\Generated_Source\PSoC4/CyLib.c ****         }
 615              		.loc 1 893 0
ARM GAS  C:\Users\SPITFI~1\AppData\Local\Temp\ccTvxQXd.s 			page 54


 616 0082 281C     		mov	r0, r5
 617 0084 FFF7FEFF 		bl	CyExitCriticalSection
 618              	.LVL44:
 619 0088 02E0     		b	.L44
 620              	.LVL45:
 621              	.L46:
 898:.\Generated_Source\PSoC4/CyLib.c ****         }
 622              		.loc 1 898 0 discriminator 1
 623 008a 0020     		mov	r0, #0
 624              	.LVL46:
 625 008c FFF7FEFF 		bl	CyHalt
 626              	.LVL47:
 627              	.L44:
 900:.\Generated_Source\PSoC4/CyLib.c **** 
 628              		.loc 1 900 0
 629              		@ sp needed
 630 0090 F8BD     		pop	{r3, r4, r5, r6, r7, pc}
 631              	.L50:
 632 0092 C046     		.align	2
 633              	.L49:
 634 0094 080F0340 		.word	1073942280
 635 0098 CDF1FF0F 		.word	268431821
 636 009c 0C0F0340 		.word	1073942284
 637 00a0 100F0340 		.word	1073942288
 638 00a4 180F0340 		.word	1073942296
 639 00a8 B4F1FF0F 		.word	268431796
 640              		.cfi_endproc
 641              	.LFE5:
 642              		.size	CySysClkWriteImoFreq, .-CySysClkWriteImoFreq
 643              		.section	.text.CyIntSetSysVector,"ax",%progbits
 644              		.align	2
 645              		.global	CyIntSetSysVector
 646              		.code	16
 647              		.thumb_func
 648              		.type	CyIntSetSysVector, %function
 649              	CyIntSetSysVector:
 650              	.LFB10:
2131:.\Generated_Source\PSoC4/CyLib.c ****     cyisraddress oldIsr;
 651              		.loc 1 2131 0
 652              		.cfi_startproc
 653              	.LVL48:
 654 0000 38B5     		push	{r3, r4, r5, lr}
 655              		.cfi_def_cfa_offset 16
 656              		.cfi_offset 3, -16
 657              		.cfi_offset 4, -12
 658              		.cfi_offset 5, -8
 659              		.cfi_offset 14, -4
 660 0002 041C     		mov	r4, r0
 661 0004 0D1C     		mov	r5, r1
 662              	.LVL49:
2135:.\Generated_Source\PSoC4/CyLib.c **** 
 663              		.loc 1 2135 0
 664 0006 0F28     		cmp	r0, #15
 665 0008 02D9     		bls	.L52
2135:.\Generated_Source\PSoC4/CyLib.c **** 
 666              		.loc 1 2135 0 is_stmt 0 discriminator 1
 667 000a 0020     		mov	r0, #0
ARM GAS  C:\Users\SPITFI~1\AppData\Local\Temp\ccTvxQXd.s 			page 55


 668              	.LVL50:
 669 000c FFF7FEFF 		bl	CyHalt
 670              	.LVL51:
 671              	.L52:
2138:.\Generated_Source\PSoC4/CyLib.c **** 
 672              		.loc 1 2138 0 is_stmt 1
 673 0010 A400     		lsl	r4, r4, #2
 674 0012 8023     		mov	r3, #128
 675 0014 9B05     		lsl	r3, r3, #22
 676 0016 9C46     		mov	ip, r3
 677 0018 6444     		add	r4, r4, ip
 678 001a 2068     		ldr	r0, [r4]
 679              	.LVL52:
2141:.\Generated_Source\PSoC4/CyLib.c **** 
 680              		.loc 1 2141 0
 681 001c 2560     		str	r5, [r4]
2144:.\Generated_Source\PSoC4/CyLib.c **** 
 682              		.loc 1 2144 0
 683              		@ sp needed
 684              	.LVL53:
 685 001e 38BD     		pop	{r3, r4, r5, pc}
 686              		.cfi_endproc
 687              	.LFE10:
 688              		.size	CyIntSetSysVector, .-CyIntSetSysVector
 689              		.section	.text.CyIntGetSysVector,"ax",%progbits
 690              		.align	2
 691              		.global	CyIntGetSysVector
 692              		.code	16
 693              		.thumb_func
 694              		.type	CyIntGetSysVector, %function
 695              	CyIntGetSysVector:
 696              	.LFB11:
2165:.\Generated_Source\PSoC4/CyLib.c ****     cyisraddress *ramVectorTable = (cyisraddress *) CY_INT_VECT_TABLE;
 697              		.loc 1 2165 0
 698              		.cfi_startproc
 699              	.LVL54:
 700 0000 10B5     		push	{r4, lr}
 701              		.cfi_def_cfa_offset 8
 702              		.cfi_offset 4, -8
 703              		.cfi_offset 14, -4
 704 0002 041E     		sub	r4, r0, #0
 705              	.LVL55:
2168:.\Generated_Source\PSoC4/CyLib.c **** 
 706              		.loc 1 2168 0
 707 0004 0F2C     		cmp	r4, #15
 708 0006 02D9     		bls	.L54
2168:.\Generated_Source\PSoC4/CyLib.c **** 
 709              		.loc 1 2168 0 is_stmt 0 discriminator 1
 710 0008 0020     		mov	r0, #0
 711              	.LVL56:
 712 000a FFF7FEFF 		bl	CyHalt
 713              	.LVL57:
 714              	.L54:
2170:.\Generated_Source\PSoC4/CyLib.c **** }
 715              		.loc 1 2170 0 is_stmt 1
 716 000e A400     		lsl	r4, r4, #2
 717 0010 8023     		mov	r3, #128
ARM GAS  C:\Users\SPITFI~1\AppData\Local\Temp\ccTvxQXd.s 			page 56


 718 0012 9B05     		lsl	r3, r3, #22
 719 0014 9C46     		mov	ip, r3
 720 0016 6444     		add	r4, r4, ip
 721 0018 2068     		ldr	r0, [r4]
2171:.\Generated_Source\PSoC4/CyLib.c **** 
 722              		.loc 1 2171 0
 723              		@ sp needed
 724 001a 10BD     		pop	{r4, pc}
 725              		.cfi_endproc
 726              	.LFE11:
 727              		.size	CyIntGetSysVector, .-CyIntGetSysVector
 728              		.section	.text.CyIntSetVector,"ax",%progbits
 729              		.align	2
 730              		.global	CyIntSetVector
 731              		.code	16
 732              		.thumb_func
 733              		.type	CyIntSetVector, %function
 734              	CyIntSetVector:
 735              	.LFB12:
2187:.\Generated_Source\PSoC4/CyLib.c ****     cyisraddress oldIsr;
 736              		.loc 1 2187 0
 737              		.cfi_startproc
 738              	.LVL58:
 739 0000 38B5     		push	{r3, r4, r5, lr}
 740              		.cfi_def_cfa_offset 16
 741              		.cfi_offset 3, -16
 742              		.cfi_offset 4, -12
 743              		.cfi_offset 5, -8
 744              		.cfi_offset 14, -4
 745 0002 041C     		mov	r4, r0
 746 0004 0D1C     		mov	r5, r1
 747              	.LVL59:
2191:.\Generated_Source\PSoC4/CyLib.c **** 
 748              		.loc 1 2191 0
 749 0006 0828     		cmp	r0, #8
 750 0008 02D9     		bls	.L56
2191:.\Generated_Source\PSoC4/CyLib.c **** 
 751              		.loc 1 2191 0 is_stmt 0 discriminator 1
 752 000a 0020     		mov	r0, #0
 753              	.LVL60:
 754 000c FFF7FEFF 		bl	CyHalt
 755              	.LVL61:
 756              	.L56:
2194:.\Generated_Source\PSoC4/CyLib.c **** 
 757              		.loc 1 2194 0 is_stmt 1
 758 0010 A400     		lsl	r4, r4, #2
 759 0012 034B     		ldr	r3, .L57
 760 0014 9C46     		mov	ip, r3
 761 0016 6444     		add	r4, r4, ip
 762 0018 2068     		ldr	r0, [r4]
 763              	.LVL62:
2197:.\Generated_Source\PSoC4/CyLib.c **** 
 764              		.loc 1 2197 0
 765 001a 2560     		str	r5, [r4]
2200:.\Generated_Source\PSoC4/CyLib.c **** 
 766              		.loc 1 2200 0
 767              		@ sp needed
ARM GAS  C:\Users\SPITFI~1\AppData\Local\Temp\ccTvxQXd.s 			page 57


 768              	.LVL63:
 769 001c 38BD     		pop	{r3, r4, r5, pc}
 770              	.L58:
 771 001e C046     		.align	2
 772              	.L57:
 773 0020 40000020 		.word	536870976
 774              		.cfi_endproc
 775              	.LFE12:
 776              		.size	CyIntSetVector, .-CyIntSetVector
 777              		.section	.text.CyIntGetVector,"ax",%progbits
 778              		.align	2
 779              		.global	CyIntGetVector
 780              		.code	16
 781              		.thumb_func
 782              		.type	CyIntGetVector, %function
 783              	CyIntGetVector:
 784              	.LFB13:
2215:.\Generated_Source\PSoC4/CyLib.c ****     cyisraddress *ramVectorTable = (cyisraddress *) CY_INT_VECT_TABLE;
 785              		.loc 1 2215 0
 786              		.cfi_startproc
 787              	.LVL64:
 788 0000 10B5     		push	{r4, lr}
 789              		.cfi_def_cfa_offset 8
 790              		.cfi_offset 4, -8
 791              		.cfi_offset 14, -4
 792 0002 041E     		sub	r4, r0, #0
 793              	.LVL65:
2218:.\Generated_Source\PSoC4/CyLib.c **** 
 794              		.loc 1 2218 0
 795 0004 082C     		cmp	r4, #8
 796 0006 02D9     		bls	.L60
2218:.\Generated_Source\PSoC4/CyLib.c **** 
 797              		.loc 1 2218 0 is_stmt 0 discriminator 1
 798 0008 0020     		mov	r0, #0
 799              	.LVL66:
 800 000a FFF7FEFF 		bl	CyHalt
 801              	.LVL67:
 802              	.L60:
2220:.\Generated_Source\PSoC4/CyLib.c **** }
 803              		.loc 1 2220 0 is_stmt 1
 804 000e A400     		lsl	r4, r4, #2
 805 0010 024B     		ldr	r3, .L61
 806 0012 9C46     		mov	ip, r3
 807 0014 6444     		add	r4, r4, ip
 808 0016 2068     		ldr	r0, [r4]
2221:.\Generated_Source\PSoC4/CyLib.c **** 
 809              		.loc 1 2221 0
 810              		@ sp needed
 811 0018 10BD     		pop	{r4, pc}
 812              	.L62:
 813 001a C046     		.align	2
 814              	.L61:
 815 001c 40000020 		.word	536870976
 816              		.cfi_endproc
 817              	.LFE13:
 818              		.size	CyIntGetVector, .-CyIntGetVector
 819              		.section	.text.CyIntSetPriority,"ax",%progbits
ARM GAS  C:\Users\SPITFI~1\AppData\Local\Temp\ccTvxQXd.s 			page 58


 820              		.align	2
 821              		.global	CyIntSetPriority
 822              		.code	16
 823              		.thumb_func
 824              		.type	CyIntSetPriority, %function
 825              	CyIntSetPriority:
 826              	.LFB14:
2234:.\Generated_Source\PSoC4/CyLib.c ****     uint8 interruptState;
 827              		.loc 1 2234 0
 828              		.cfi_startproc
 829              	.LVL68:
 830 0000 70B5     		push	{r4, r5, r6, lr}
 831              		.cfi_def_cfa_offset 16
 832              		.cfi_offset 4, -16
 833              		.cfi_offset 5, -12
 834              		.cfi_offset 6, -8
 835              		.cfi_offset 14, -4
 836 0002 041C     		mov	r4, r0
 837 0004 0E1E     		sub	r6, r1, #0
2239:.\Generated_Source\PSoC4/CyLib.c ****     CYASSERT(number < CY_NUM_INTERRUPTS);
 838              		.loc 1 2239 0
 839 0006 032E     		cmp	r6, #3
 840 0008 02D9     		bls	.L64
2239:.\Generated_Source\PSoC4/CyLib.c ****     CYASSERT(number < CY_NUM_INTERRUPTS);
 841              		.loc 1 2239 0 is_stmt 0 discriminator 1
 842 000a 0020     		mov	r0, #0
 843              	.LVL69:
 844 000c FFF7FEFF 		bl	CyHalt
 845              	.LVL70:
 846              	.L64:
2240:.\Generated_Source\PSoC4/CyLib.c **** 
 847              		.loc 1 2240 0 is_stmt 1
 848 0010 082C     		cmp	r4, #8
 849 0012 02D9     		bls	.L65
2240:.\Generated_Source\PSoC4/CyLib.c **** 
 850              		.loc 1 2240 0 is_stmt 0 discriminator 1
 851 0014 0020     		mov	r0, #0
 852 0016 FFF7FEFF 		bl	CyHalt
 853              	.LVL71:
 854              	.L65:
2242:.\Generated_Source\PSoC4/CyLib.c **** 
 855              		.loc 1 2242 0 is_stmt 1
 856 001a 0325     		mov	r5, #3
 857 001c 2540     		and	r5, r4
 858 001e ED00     		lsl	r5, r5, #3
 859 0020 0635     		add	r5, r5, #6
 860              	.LVL72:
2244:.\Generated_Source\PSoC4/CyLib.c **** 
 861              		.loc 1 2244 0
 862 0022 FFF7FEFF 		bl	CyEnterCriticalSection
 863              	.LVL73:
2246:.\Generated_Source\PSoC4/CyLib.c ****     value &= (uint32)(~((uint32)(CY_INT_PRIORITY_MASK << shift)));
 864              		.loc 1 2246 0
 865 0026 A408     		lsr	r4, r4, #2
 866 0028 A400     		lsl	r4, r4, #2
 867 002a 074B     		ldr	r3, .L66
 868 002c 9C46     		mov	ip, r3
ARM GAS  C:\Users\SPITFI~1\AppData\Local\Temp\ccTvxQXd.s 			page 59


 869 002e 6444     		add	r4, r4, ip
 870 0030 2368     		ldr	r3, [r4]
 871              	.LVL74:
2247:.\Generated_Source\PSoC4/CyLib.c ****     value |= ((uint32)priority << shift);
 872              		.loc 1 2247 0
 873 0032 0322     		mov	r2, #3
 874 0034 AA40     		lsl	r2, r2, r5
 875 0036 9343     		bic	r3, r2
 876              	.LVL75:
2248:.\Generated_Source\PSoC4/CyLib.c ****     CY_INT_PRIORITY_REG(number) = value;
 877              		.loc 1 2248 0
 878 0038 AE40     		lsl	r6, r6, r5
 879 003a 351C     		mov	r5, r6
 880              	.LVL76:
 881 003c 1D43     		orr	r5, r3
 882              	.LVL77:
2249:.\Generated_Source\PSoC4/CyLib.c **** 
 883              		.loc 1 2249 0
 884 003e 2560     		str	r5, [r4]
2251:.\Generated_Source\PSoC4/CyLib.c **** }
 885              		.loc 1 2251 0
 886 0040 FFF7FEFF 		bl	CyExitCriticalSection
 887              	.LVL78:
2252:.\Generated_Source\PSoC4/CyLib.c **** 
 888              		.loc 1 2252 0
 889              		@ sp needed
 890              	.LVL79:
 891 0044 70BD     		pop	{r4, r5, r6, pc}
 892              	.L67:
 893 0046 C046     		.align	2
 894              	.L66:
 895 0048 00E400E0 		.word	-536812544
 896              		.cfi_endproc
 897              	.LFE14:
 898              		.size	CyIntSetPriority, .-CyIntSetPriority
 899              		.section	.text.CyIntGetPriority,"ax",%progbits
 900              		.align	2
 901              		.global	CyIntGetPriority
 902              		.code	16
 903              		.thumb_func
 904              		.type	CyIntGetPriority, %function
 905              	CyIntGetPriority:
 906              	.LFB15:
2268:.\Generated_Source\PSoC4/CyLib.c ****     uint8 priority;
 907              		.loc 1 2268 0
 908              		.cfi_startproc
 909              	.LVL80:
 910 0000 10B5     		push	{r4, lr}
 911              		.cfi_def_cfa_offset 8
 912              		.cfi_offset 4, -8
 913              		.cfi_offset 14, -4
 914 0002 041E     		sub	r4, r0, #0
2271:.\Generated_Source\PSoC4/CyLib.c **** 
 915              		.loc 1 2271 0
 916 0004 082C     		cmp	r4, #8
 917 0006 02D9     		bls	.L69
2271:.\Generated_Source\PSoC4/CyLib.c **** 
ARM GAS  C:\Users\SPITFI~1\AppData\Local\Temp\ccTvxQXd.s 			page 60


 918              		.loc 1 2271 0 is_stmt 0 discriminator 1
 919 0008 0020     		mov	r0, #0
 920              	.LVL81:
 921 000a FFF7FEFF 		bl	CyHalt
 922              	.LVL82:
 923              	.L69:
2273:.\Generated_Source\PSoC4/CyLib.c **** 
 924              		.loc 1 2273 0 is_stmt 1
 925 000e A308     		lsr	r3, r4, #2
 926 0010 9B00     		lsl	r3, r3, #2
 927 0012 054A     		ldr	r2, .L70
 928 0014 9446     		mov	ip, r2
 929 0016 6344     		add	r3, r3, ip
 930 0018 1868     		ldr	r0, [r3]
 931 001a 0323     		mov	r3, #3
 932 001c 1C40     		and	r4, r3
 933 001e E400     		lsl	r4, r4, #3
 934 0020 0634     		add	r4, r4, #6
 935 0022 E040     		lsr	r0, r0, r4
 936              	.LVL83:
2275:.\Generated_Source\PSoC4/CyLib.c **** }
 937              		.loc 1 2275 0
 938 0024 1840     		and	r0, r3
 939              	.LVL84:
2276:.\Generated_Source\PSoC4/CyLib.c **** 
 940              		.loc 1 2276 0
 941              		@ sp needed
 942 0026 10BD     		pop	{r4, pc}
 943              	.L71:
 944              		.align	2
 945              	.L70:
 946 0028 00E400E0 		.word	-536812544
 947              		.cfi_endproc
 948              	.LFE15:
 949              		.size	CyIntGetPriority, .-CyIntGetPriority
 950              		.section	.text.CySoftwareReset,"ax",%progbits
 951              		.align	2
 952              		.global	CySoftwareReset
 953              		.code	16
 954              		.thumb_func
 955              		.type	CySoftwareReset, %function
 956              	CySoftwareReset:
 957              	.LFB22:
2381:.\Generated_Source\PSoC4/CyLib.c **** 
2382:.\Generated_Source\PSoC4/CyLib.c **** 
2383:.\Generated_Source\PSoC4/CyLib.c **** /*******************************************************************************
2384:.\Generated_Source\PSoC4/CyLib.c **** * Function Name: CySoftwareReset
2385:.\Generated_Source\PSoC4/CyLib.c **** ****************************************************************************//**
2386:.\Generated_Source\PSoC4/CyLib.c **** *
2387:.\Generated_Source\PSoC4/CyLib.c **** *  Forces a software reset of the device.
2388:.\Generated_Source\PSoC4/CyLib.c **** *
2389:.\Generated_Source\PSoC4/CyLib.c **** *******************************************************************************/
2390:.\Generated_Source\PSoC4/CyLib.c **** void CySoftwareReset(void)
2391:.\Generated_Source\PSoC4/CyLib.c **** {
 958              		.loc 1 2391 0
 959              		.cfi_startproc
2392:.\Generated_Source\PSoC4/CyLib.c ****     /***************************************************************************
ARM GAS  C:\Users\SPITFI~1\AppData\Local\Temp\ccTvxQXd.s 			page 61


2393:.\Generated_Source\PSoC4/CyLib.c ****     * Setting the system reset request bit. The vector key value must be written
2394:.\Generated_Source\PSoC4/CyLib.c ****     * to the register, otherwise the register write is unpredictable.
2395:.\Generated_Source\PSoC4/CyLib.c ****     ***************************************************************************/
2396:.\Generated_Source\PSoC4/CyLib.c ****     CY_SYS_AIRCR_REG = (CY_SYS_AIRCR_REG & (uint32)(~CY_SYS_AIRCR_VECTKEY_MASK)) |
 960              		.loc 1 2396 0
 961 0000 034A     		ldr	r2, .L73
 962 0002 1368     		ldr	r3, [r2]
 963 0004 1B04     		lsl	r3, r3, #16
 964 0006 1B0C     		lsr	r3, r3, #16
2397:.\Generated_Source\PSoC4/CyLib.c ****                             CY_SYS_AIRCR_VECTKEY | CY_SYS_AIRCR_SYSRESETREQ;
 965              		.loc 1 2397 0
 966 0008 0249     		ldr	r1, .L73+4
 967 000a 0B43     		orr	r3, r1
2396:.\Generated_Source\PSoC4/CyLib.c ****                             CY_SYS_AIRCR_VECTKEY | CY_SYS_AIRCR_SYSRESETREQ;
 968              		.loc 1 2396 0
 969 000c 1360     		str	r3, [r2]
2398:.\Generated_Source\PSoC4/CyLib.c **** }
 970              		.loc 1 2398 0
 971              		@ sp needed
 972 000e 7047     		bx	lr
 973              	.L74:
 974              		.align	2
 975              	.L73:
 976 0010 0CED00E0 		.word	-536810228
 977 0014 0400FA05 		.word	100270084
 978              		.cfi_endproc
 979              	.LFE22:
 980              		.size	CySoftwareReset, .-CySoftwareReset
 981              		.section	.text.CyDelay,"ax",%progbits
 982              		.align	2
 983              		.global	CyDelay
 984              		.code	16
 985              		.thumb_func
 986              		.type	CyDelay, %function
 987              	CyDelay:
 988              	.LFB23:
2399:.\Generated_Source\PSoC4/CyLib.c **** 
2400:.\Generated_Source\PSoC4/CyLib.c **** 
2401:.\Generated_Source\PSoC4/CyLib.c **** /*******************************************************************************
2402:.\Generated_Source\PSoC4/CyLib.c **** * Function Name: CyDelay
2403:.\Generated_Source\PSoC4/CyLib.c **** ****************************************************************************//**
2404:.\Generated_Source\PSoC4/CyLib.c **** *
2405:.\Generated_Source\PSoC4/CyLib.c **** *  Blocks for milliseconds.
2406:.\Generated_Source\PSoC4/CyLib.c **** *
2407:.\Generated_Source\PSoC4/CyLib.c **** *  \param milliseconds: number of milliseconds to delay.
2408:.\Generated_Source\PSoC4/CyLib.c **** *
2409:.\Generated_Source\PSoC4/CyLib.c **** *******************************************************************************/
2410:.\Generated_Source\PSoC4/CyLib.c **** void CyDelay(uint32 milliseconds)
2411:.\Generated_Source\PSoC4/CyLib.c **** {
 989              		.loc 1 2411 0
 990              		.cfi_startproc
 991              	.LVL85:
 992 0000 10B5     		push	{r4, lr}
 993              		.cfi_def_cfa_offset 8
 994              		.cfi_offset 4, -8
 995              		.cfi_offset 14, -4
 996 0002 041C     		mov	r4, r0
ARM GAS  C:\Users\SPITFI~1\AppData\Local\Temp\ccTvxQXd.s 			page 62


2412:.\Generated_Source\PSoC4/CyLib.c ****     while (milliseconds > CY_DELAY_MS_OVERFLOW)
 997              		.loc 1 2412 0
 998 0004 06E0     		b	.L76
 999              	.LVL86:
 1000              	.L77:
2413:.\Generated_Source\PSoC4/CyLib.c ****     {
2414:.\Generated_Source\PSoC4/CyLib.c ****         /* This loop prevents overflow.
2415:.\Generated_Source\PSoC4/CyLib.c ****          * At 100MHz, milliseconds * cydelayFreqKhz overflows at about 42 seconds
2416:.\Generated_Source\PSoC4/CyLib.c ****          */
2417:.\Generated_Source\PSoC4/CyLib.c ****         CyDelayCycles(cydelay32kMs);
 1001              		.loc 1 2417 0
 1002 0006 084B     		ldr	r3, .L78
 1003 0008 1868     		ldr	r0, [r3]
 1004 000a FFF7FEFF 		bl	CyDelayCycles
 1005              	.LVL87:
2418:.\Generated_Source\PSoC4/CyLib.c ****         milliseconds -= CY_DELAY_MS_OVERFLOW;
 1006              		.loc 1 2418 0
 1007 000e 074B     		ldr	r3, .L78+4
 1008 0010 9C46     		mov	ip, r3
 1009 0012 6444     		add	r4, r4, ip
 1010              	.LVL88:
 1011              	.L76:
2412:.\Generated_Source\PSoC4/CyLib.c ****     while (milliseconds > CY_DELAY_MS_OVERFLOW)
 1012              		.loc 1 2412 0
 1013 0014 8023     		mov	r3, #128
 1014 0016 1B02     		lsl	r3, r3, #8
 1015 0018 9C42     		cmp	r4, r3
 1016 001a F4D8     		bhi	.L77
2419:.\Generated_Source\PSoC4/CyLib.c ****     }
2420:.\Generated_Source\PSoC4/CyLib.c **** 
2421:.\Generated_Source\PSoC4/CyLib.c ****     CyDelayCycles(milliseconds * cydelayFreqKhz);
 1017              		.loc 1 2421 0
 1018 001c 024B     		ldr	r3, .L78
 1019 001e 5868     		ldr	r0, [r3, #4]
 1020 0020 6043     		mul	r0, r4
 1021 0022 FFF7FEFF 		bl	CyDelayCycles
 1022              	.LVL89:
2422:.\Generated_Source\PSoC4/CyLib.c **** }
 1023              		.loc 1 2422 0
 1024              		@ sp needed
 1025              	.LVL90:
 1026 0026 10BD     		pop	{r4, pc}
 1027              	.L79:
 1028              		.align	2
 1029              	.L78:
 1030 0028 00000000 		.word	.LANCHOR0
 1031 002c 0080FFFF 		.word	-32768
 1032              		.cfi_endproc
 1033              	.LFE23:
 1034              		.size	CyDelay, .-CyDelay
 1035              		.section	.text.CyDelayUs,"ax",%progbits
 1036              		.align	2
 1037              		.global	CyDelayUs
 1038              		.code	16
 1039              		.thumb_func
 1040              		.type	CyDelayUs, %function
 1041              	CyDelayUs:
ARM GAS  C:\Users\SPITFI~1\AppData\Local\Temp\ccTvxQXd.s 			page 63


 1042              	.LFB24:
2423:.\Generated_Source\PSoC4/CyLib.c **** 
2424:.\Generated_Source\PSoC4/CyLib.c **** 
2425:.\Generated_Source\PSoC4/CyLib.c **** /*******************************************************************************
2426:.\Generated_Source\PSoC4/CyLib.c **** * Function Name: CyDelayUs
2427:.\Generated_Source\PSoC4/CyLib.c **** ****************************************************************************//**
2428:.\Generated_Source\PSoC4/CyLib.c **** *  Blocks for microseconds.
2429:.\Generated_Source\PSoC4/CyLib.c **** *
2430:.\Generated_Source\PSoC4/CyLib.c **** *  \param microseconds: number of microseconds to delay.
2431:.\Generated_Source\PSoC4/CyLib.c **** *
2432:.\Generated_Source\PSoC4/CyLib.c **** *******************************************************************************/
2433:.\Generated_Source\PSoC4/CyLib.c **** void CyDelayUs(uint16 microseconds)
2434:.\Generated_Source\PSoC4/CyLib.c **** {
 1043              		.loc 1 2434 0
 1044              		.cfi_startproc
 1045              	.LVL91:
 1046 0000 08B5     		push	{r3, lr}
 1047              		.cfi_def_cfa_offset 8
 1048              		.cfi_offset 3, -8
 1049              		.cfi_offset 14, -4
2435:.\Generated_Source\PSoC4/CyLib.c ****     CyDelayCycles((uint32)microseconds * cydelayFreqMhz);
 1050              		.loc 1 2435 0
 1051 0002 034B     		ldr	r3, .L81
 1052 0004 1B7A     		ldrb	r3, [r3, #8]
 1053 0006 5843     		mul	r0, r3
 1054              	.LVL92:
 1055 0008 FFF7FEFF 		bl	CyDelayCycles
 1056              	.LVL93:
2436:.\Generated_Source\PSoC4/CyLib.c **** }
 1057              		.loc 1 2436 0
 1058              		@ sp needed
 1059 000c 08BD     		pop	{r3, pc}
 1060              	.L82:
 1061 000e C046     		.align	2
 1062              	.L81:
 1063 0010 00000000 		.word	.LANCHOR0
 1064              		.cfi_endproc
 1065              	.LFE24:
 1066              		.size	CyDelayUs, .-CyDelayUs
 1067              		.global	__aeabi_uidiv
 1068              		.section	.text.CyDelayFreq,"ax",%progbits
 1069              		.align	2
 1070              		.global	CyDelayFreq
 1071              		.code	16
 1072              		.thumb_func
 1073              		.type	CyDelayFreq, %function
 1074              	CyDelayFreq:
 1075              	.LFB25:
2437:.\Generated_Source\PSoC4/CyLib.c **** 
2438:.\Generated_Source\PSoC4/CyLib.c **** 
2439:.\Generated_Source\PSoC4/CyLib.c **** /*******************************************************************************
2440:.\Generated_Source\PSoC4/CyLib.c **** * Function Name: CyDelayFreq
2441:.\Generated_Source\PSoC4/CyLib.c **** ****************************************************************************//**
2442:.\Generated_Source\PSoC4/CyLib.c **** *  Sets clock frequency for CyDelay.
2443:.\Generated_Source\PSoC4/CyLib.c **** *
2444:.\Generated_Source\PSoC4/CyLib.c **** *  \param freq: Frequency of bus clock in Hertz.
2445:.\Generated_Source\PSoC4/CyLib.c **** *
ARM GAS  C:\Users\SPITFI~1\AppData\Local\Temp\ccTvxQXd.s 			page 64


2446:.\Generated_Source\PSoC4/CyLib.c **** *******************************************************************************/
2447:.\Generated_Source\PSoC4/CyLib.c **** void CyDelayFreq(uint32 freq)
2448:.\Generated_Source\PSoC4/CyLib.c **** {
 1076              		.loc 1 2448 0
 1077              		.cfi_startproc
 1078              	.LVL94:
 1079 0000 38B5     		push	{r3, r4, r5, lr}
 1080              		.cfi_def_cfa_offset 16
 1081              		.cfi_offset 3, -16
 1082              		.cfi_offset 4, -12
 1083              		.cfi_offset 5, -8
 1084              		.cfi_offset 14, -4
2449:.\Generated_Source\PSoC4/CyLib.c ****     if (freq != 0u)
 1085              		.loc 1 2449 0
 1086 0002 0028     		cmp	r0, #0
 1087 0004 02D0     		beq	.L84
2450:.\Generated_Source\PSoC4/CyLib.c ****     {
2451:.\Generated_Source\PSoC4/CyLib.c ****         cydelayFreqHz = freq;
 1088              		.loc 1 2451 0
 1089 0006 0C4B     		ldr	r3, .L86
 1090 0008 D860     		str	r0, [r3, #12]
 1091 000a 02E0     		b	.L85
 1092              	.L84:
2452:.\Generated_Source\PSoC4/CyLib.c ****     }
2453:.\Generated_Source\PSoC4/CyLib.c ****     else
2454:.\Generated_Source\PSoC4/CyLib.c ****     {
2455:.\Generated_Source\PSoC4/CyLib.c ****         cydelayFreqHz = CYDEV_BCLK__SYSCLK__HZ;
 1093              		.loc 1 2455 0
 1094 000c 0B4A     		ldr	r2, .L86+4
 1095 000e 0A4B     		ldr	r3, .L86
 1096 0010 DA60     		str	r2, [r3, #12]
 1097              	.L85:
2456:.\Generated_Source\PSoC4/CyLib.c ****     }
2457:.\Generated_Source\PSoC4/CyLib.c **** 
2458:.\Generated_Source\PSoC4/CyLib.c ****     cydelayFreqMhz = (uint8)((cydelayFreqHz + CY_DELAY_1M_MINUS_1_THRESHOLD) / CY_DELAY_1M_THRESHOL
 1098              		.loc 1 2458 0
 1099 0012 094C     		ldr	r4, .L86
 1100 0014 E568     		ldr	r5, [r4, #12]
 1101 0016 0A4B     		ldr	r3, .L86+8
 1102 0018 E818     		add	r0, r5, r3
 1103              	.LVL95:
 1104 001a 0A49     		ldr	r1, .L86+12
 1105 001c FFF7FEFF 		bl	__aeabi_uidiv
 1106              	.LVL96:
 1107 0020 2072     		strb	r0, [r4, #8]
2459:.\Generated_Source\PSoC4/CyLib.c ****     cydelayFreqKhz = (cydelayFreqHz + CY_DELAY_1K_MINUS_1_THRESHOLD) / CY_DELAY_1K_THRESHOLD;
 1108              		.loc 1 2459 0
 1109 0022 094B     		ldr	r3, .L86+16
 1110 0024 E818     		add	r0, r5, r3
 1111 0026 FA21     		mov	r1, #250
 1112 0028 8900     		lsl	r1, r1, #2
 1113 002a FFF7FEFF 		bl	__aeabi_uidiv
 1114              	.LVL97:
 1115 002e 6060     		str	r0, [r4, #4]
2460:.\Generated_Source\PSoC4/CyLib.c ****     cydelay32kMs   = CY_DELAY_MS_OVERFLOW * cydelayFreqKhz;
 1116              		.loc 1 2460 0
 1117 0030 C003     		lsl	r0, r0, #15
ARM GAS  C:\Users\SPITFI~1\AppData\Local\Temp\ccTvxQXd.s 			page 65


 1118 0032 2060     		str	r0, [r4]
