ARM GAS  C:\Users\SPITFI~1\AppData\Local\Temp\ccZg12E3.s 			page 1


   1              		.cpu cortex-m0
   2              		.fpu softvfp
   3              		.eabi_attribute 20, 1
   4              		.eabi_attribute 21, 1
   5              		.eabi_attribute 23, 3
   6              		.eabi_attribute 24, 1
   7              		.eabi_attribute 25, 1
   8              		.eabi_attribute 26, 1
   9              		.eabi_attribute 30, 1
  10              		.eabi_attribute 34, 0
  11              		.eabi_attribute 18, 4
  12              		.code	16
  13              		.file	"main.c"
  14              		.text
  15              	.Ltext0:
  16              		.cfi_sections	.debug_frame
  17              		.section	.text.PWM_isr,"ax",%progbits
  18              		.align	2
  19              		.global	PWM_isr
  20              		.code	16
  21              		.thumb_func
  22              		.type	PWM_isr, %function
  23              	PWM_isr:
  24              	.LFB35:
  25              		.file 1 "..\\Common\\main.c"
   1:..\Common/main.c **** /* ========================================
   2:..\Common/main.c ****  *
   3:..\Common/main.c ****  * Copyright YOUR COMPANY, THE YEAR
   4:..\Common/main.c ****  * All Rights Reserved
   5:..\Common/main.c ****  * UNPUBLISHED, LICENSED SOFTWARE.
   6:..\Common/main.c ****  *
   7:..\Common/main.c ****  * CONFIDENTIAL AND PROPRIETARY INFORMATION
   8:..\Common/main.c ****  * WHICH IS THE PROPERTY OF your company.
   9:..\Common/main.c ****  *
  10:..\Common/main.c ****  * ========================================
  11:..\Common/main.c **** */
  12:..\Common/main.c **** 
  13:..\Common/main.c **** /* All includes, defines and global variables are declared in main.h */
  14:..\Common/main.c **** #include "main.h"
  15:..\Common/main.c **** #include <stdio.h>
  16:..\Common/main.c **** #include <math.h>
  17:..\Common/main.c **** 
  18:..\Common/main.c **** int main()
  19:..\Common/main.c **** {
  20:..\Common/main.c ****     
  21:..\Common/main.c ****     /* Enabling global interrupts */
  22:..\Common/main.c ****     CyGlobalIntEnable;
  23:..\Common/main.c ****     
  24:..\Common/main.c ****     /* Starting all devices */
  25:..\Common/main.c ****     PWM_CLOCK_Start();
  26:..\Common/main.c ****     
  27:..\Common/main.c ****     /* Starting components */
  28:..\Common/main.c ****     #if( COMMUNICATION_LAYER == I2C_MODE )
  29:..\Common/main.c ****         I2C_I2CSlaveInitReadBuf (i2cReadBuffer,  BUFFER_SIZE);
  30:..\Common/main.c ****         I2C_I2CSlaveInitWriteBuf(i2cWriteBuffer, BUFFER_SIZE);
  31:..\Common/main.c ****         I2C_Start();
  32:..\Common/main.c ****         I2C_Status = STS_CMD_FAIL;
ARM GAS  C:\Users\SPITFI~1\AppData\Local\Temp\ccZg12E3.s 			page 2


  33:..\Common/main.c ****     #else
  34:..\Common/main.c ****         SW_Tx_UART_Start();  
  35:..\Common/main.c ****         UART_TX_Flag = 0;
  36:..\Common/main.c ****     #endif
  37:..\Common/main.c ****     
  38:..\Common/main.c ****     PWM_Start();
  39:..\Common/main.c **** 
  40:..\Common/main.c ****     
  41:..\Common/main.c ****     /* Configure ISR */
  42:..\Common/main.c ****     PWM_isr_StartEx( PWM_isr );
  43:..\Common/main.c ****     Push_Button_isr_StartEx( Push_Button_isr );
  44:..\Common/main.c **** 
  45:..\Common/main.c ****     /* Variables default values */
  46:..\Common/main.c ****     DelayBeforeShutOff = DEFAULT_TIMEOUT;
  47:..\Common/main.c ****     Second_in_Base_60 = ( DelayBeforeShutOff / OVERFLOW_PER_SECOND );
  48:..\Common/main.c ****     Push_Button_Interrupt_Flag = 0;
  49:..\Common/main.c ****     Second_Counter = 0;
  50:..\Common/main.c **** 
  51:..\Common/main.c ****     for(;;)
  52:..\Common/main.c ****     {
  53:..\Common/main.c ****         /* Disabling the SUPPLY ENABLE if timeout has been reached */
  54:..\Common/main.c ****         if( DelayBeforeShutOff == 0 )
  55:..\Common/main.c ****         {
  56:..\Common/main.c ****             SUPPLY_ENABLE_Write( LOW ); 
  57:..\Common/main.c ****             PWM_WriteCompare( LOW_GLOW );
  58:..\Common/main.c ****         }
  59:..\Common/main.c ****         else
  60:..\Common/main.c ****         {
  61:..\Common/main.c ****             /* Continue */
  62:..\Common/main.c ****         }
  63:..\Common/main.c ****         
  64:..\Common/main.c ****         /* Check if push button has been toggled */
  65:..\Common/main.c ****         if( Push_Button_Interrupt_Flag == 1 )
  66:..\Common/main.c ****         {
  67:..\Common/main.c ****             /* Activating the output */
  68:..\Common/main.c ****             SUPPLY_ENABLE_Write( HIGH ); 
  69:..\Common/main.c ****             
  70:..\Common/main.c ****             /* Clearing the pushbutton interrupt flag */
  71:..\Common/main.c ****             Push_Button_Interrupt_Flag = 0;
  72:..\Common/main.c ****             
  73:..\Common/main.c ****             /* Resetting the counter if timeout occured */
  74:..\Common/main.c ****             DelayBeforeShutOff = DEFAULT_TIMEOUT;
  75:..\Common/main.c ****             Second_in_Base_60 = ( DelayBeforeShutOff / OVERFLOW_PER_SECOND );
  76:..\Common/main.c ****   
  77:..\Common/main.c ****             /* Restarting the interrupt if it has been stopped */
  78:..\Common/main.c ****             PWM_isr_StartEx(PWM_isr);
  79:..\Common/main.c ****             PWM_ClearInterrupt(PWM_INTR_MASK_TC);
  80:..\Common/main.c ****         }
  81:..\Common/main.c ****         else
  82:..\Common/main.c ****         {
  83:..\Common/main.c ****             /* Toggling PWM Compare value depending on seconf counter value */
  84:..\Common/main.c ****             if( DelayBeforeShutOff != 0 )
  85:..\Common/main.c ****             {
  86:..\Common/main.c ****                 if( Second_Counter < ( SECOND_COUNT / 2 ) )
  87:..\Common/main.c ****                 {
  88:..\Common/main.c ****                     PWM_WriteCompare( MID_GLOW );
  89:..\Common/main.c ****                 }
ARM GAS  C:\Users\SPITFI~1\AppData\Local\Temp\ccZg12E3.s 			page 3


  90:..\Common/main.c ****                 else
  91:..\Common/main.c ****                 {
  92:..\Common/main.c ****                     PWM_WriteCompare( HIGH_GLOW );
  93:..\Common/main.c ****                 }
  94:..\Common/main.c ****                 
  95:..\Common/main.c ****             }
  96:..\Common/main.c ****             else
  97:..\Common/main.c ****             {
  98:..\Common/main.c ****                 /* Continue */
  99:..\Common/main.c ****             }
 100:..\Common/main.c ****         }
 101:..\Common/main.c ****         
 102:..\Common/main.c ****         /* Check if we must send info over UART */
 103:..\Common/main.c ****         #if( COMMUNICATION_LAYER == SERIAL_MODE )
 104:..\Common/main.c ****             if( UART_TX_Flag == 1 )
 105:..\Common/main.c ****             {
 106:..\Common/main.c ****                 SW_Tx_UART_PutString("--------------------------");
 107:..\Common/main.c ****                 SW_Tx_UART_PutCRLF();
 108:..\Common/main.c ****                 SW_Tx_UART_PutString("Operating Mode: ");
 109:..\Common/main.c ****                 if( Mode == 0 )
 110:..\Common/main.c ****                 {
 111:..\Common/main.c ****                     SW_Tx_UART_PutString("Shuttoff");
 112:..\Common/main.c ****                 }
 113:..\Common/main.c ****                 else
 114:..\Common/main.c ****                 {
 115:..\Common/main.c ****                     SW_Tx_UART_PutString("Toggle");
 116:..\Common/main.c ****                 }
 117:..\Common/main.c ****                 SW_Tx_UART_PutCRLF();
 118:..\Common/main.c ****                 SW_Tx_UART_PutString("Seconds remaning: ");
 119:..\Common/main.c ****                 SW_Tx_UART_PutHexInt( Second_in_Base_60 );
 120:..\Common/main.c ****                 SW_Tx_UART_PutCRLF();
 121:..\Common/main.c ****                 UART_TX_Flag = 0;
 122:..\Common/main.c ****             }
 123:..\Common/main.c ****             else
 124:..\Common/main.c ****             {
 125:..\Common/main.c ****                 /* Continue */
 126:..\Common/main.c ****             }
 127:..\Common/main.c ****         #else
 128:..\Common/main.c ****             if (0u != (I2C_I2CSlaveStatus() & I2C_I2C_SSTAT_WR_CMPLT))
 129:..\Common/main.c ****             {
 130:..\Common/main.c ****                 /* Check packet length */
 131:..\Common/main.c ****                 if (PACKET_SIZE == I2C_I2CSlaveGetWriteBufSize())
 132:..\Common/main.c ****                 {
 133:..\Common/main.c ****                     /* Check start and end of packet markers */
 134:..\Common/main.c ****                     if ((i2cWriteBuffer[PACKET_SOP_POS] == PACKET_SOP) &&
 135:..\Common/main.c ****                         (i2cWriteBuffer[PACKET_EOP_POS] == PACKET_EOP))
 136:..\Common/main.c ****                     {
 137:..\Common/main.c ****                         I2C_Status = ExecuteI2CCommand(i2cWriteBuffer[PACKET_CMD_POS], i2cWriteBuff
 138:..\Common/main.c ****                     }
 139:..\Common/main.c ****                 }
 140:..\Common/main.c ****             
 141:..\Common/main.c ****                 /* Clear slave write buffer and status */
 142:..\Common/main.c ****                 I2C_I2CSlaveClearWriteBuf();
 143:..\Common/main.c ****                 (void) I2C_I2CSlaveClearWriteStatus();
 144:..\Common/main.c ****             
 145:..\Common/main.c ****                 /* Update read buffer */
 146:..\Common/main.c ****                 i2cReadBuffer[PACKET_STS_POS] = I2C_Status;
ARM GAS  C:\Users\SPITFI~1\AppData\Local\Temp\ccZg12E3.s 			page 4


 147:..\Common/main.c ****                 I2C_Status = STS_CMD_FAIL;
 148:..\Common/main.c ****             }
 149:..\Common/main.c **** 
 150:..\Common/main.c ****             /* Read complete: expose buffer to master */
 151:..\Common/main.c ****             if (0u != (I2C_I2CSlaveStatus() & I2C_I2C_SSTAT_RD_CMPLT))
 152:..\Common/main.c ****             {
 153:..\Common/main.c ****                 /* Clear slave read buffer and status */
 154:..\Common/main.c ****                 I2C_I2CSlaveClearReadBuf();
 155:..\Common/main.c ****                 (void) I2C_I2CSlaveClearReadStatus();
 156:..\Common/main.c ****             }
 157:..\Common/main.c ****         #endif
 158:..\Common/main.c ****     }
 159:..\Common/main.c **** }
 160:..\Common/main.c **** 
 161:..\Common/main.c **** /*******************************************************************************
 162:..\Common/main.c **** * Function Name: PWM_isr
 163:..\Common/main.c **** ********************************************************************************
 164:..\Common/main.c **** * Summary:
 165:..\Common/main.c **** *  PWM module TC interrupt routine code
 166:..\Common/main.c **** *
 167:..\Common/main.c **** * Parameters: None.
 168:..\Common/main.c **** *
 169:..\Common/main.c **** * Return: None.
 170:..\Common/main.c **** *
 171:..\Common/main.c **** *******************************************************************************/
 172:..\Common/main.c **** CY_ISR(PWM_isr)
 173:..\Common/main.c **** {
  26              		.loc 1 173 0
  27              		.cfi_startproc
  28 0000 08B5     		push	{r3, lr}
  29              		.cfi_def_cfa_offset 8
  30              		.cfi_offset 3, -8
  31              		.cfi_offset 14, -4
 174:..\Common/main.c ****     if( DelayBeforeShutOff <= 1 )
  32              		.loc 1 174 0
  33 0002 124B     		ldr	r3, .L6
  34 0004 1B68     		ldr	r3, [r3]
  35 0006 012B     		cmp	r3, #1
  36 0008 07D8     		bhi	.L2
 175:..\Common/main.c ****     {
 176:..\Common/main.c ****         DelayBeforeShutOff = 0;
  37              		.loc 1 176 0
  38 000a 0023     		mov	r3, #0
  39 000c 0F4A     		ldr	r2, .L6
  40 000e 1360     		str	r3, [r2]
 177:..\Common/main.c ****         Second_in_Base_60 = 0;
  41              		.loc 1 177 0
  42 0010 0F4A     		ldr	r2, .L6+4
  43 0012 1370     		strb	r3, [r2]
 178:..\Common/main.c ****         PWM_isr_Stop();
  44              		.loc 1 178 0
  45 0014 FFF7FEFF 		bl	PWM_isr_Stop
  46              	.LVL0:
  47 0018 02E0     		b	.L3
  48              	.L2:
 179:..\Common/main.c ****     }
 180:..\Common/main.c ****     else
ARM GAS  C:\Users\SPITFI~1\AppData\Local\Temp\ccZg12E3.s 			page 5


 181:..\Common/main.c ****     {
 182:..\Common/main.c ****         DelayBeforeShutOff--;
  49              		.loc 1 182 0
  50 001a 013B     		sub	r3, r3, #1
  51 001c 0B4A     		ldr	r2, .L6
  52 001e 1360     		str	r3, [r2]
  53              	.L3:
 183:..\Common/main.c ****     }
 184:..\Common/main.c ****     
 185:..\Common/main.c ****     if( Second_Counter == SECOND_COUNT )
  54              		.loc 1 185 0
  55 0020 0C4B     		ldr	r3, .L6+8
  56 0022 1B78     		ldrb	r3, [r3]
  57 0024 C82B     		cmp	r3, #200
  58 0026 0AD1     		bne	.L4
 186:..\Common/main.c ****     {
 187:..\Common/main.c ****         Second_Counter = 0;
  59              		.loc 1 187 0
  60 0028 0022     		mov	r2, #0
  61 002a 0A4B     		ldr	r3, .L6+8
  62 002c 1A70     		strb	r2, [r3]
 188:..\Common/main.c ****         Second_in_Base_60--;
  63              		.loc 1 188 0
  64 002e 084A     		ldr	r2, .L6+4
  65 0030 1378     		ldrb	r3, [r2]
  66 0032 013B     		sub	r3, r3, #1
  67 0034 1370     		strb	r3, [r2]
 189:..\Common/main.c ****         #if( COMMUNICATION_LAYER == SERIAL_MODE )
 190:..\Common/main.c ****             UART_TX_Flag = 1;
  68              		.loc 1 190 0
  69 0036 0122     		mov	r2, #1
  70 0038 074B     		ldr	r3, .L6+12
  71 003a 1A70     		strb	r2, [r3]
  72 003c 02E0     		b	.L5
  73              	.L4:
 191:..\Common/main.c ****         #else
 192:..\Common/main.c ****         #endif
 193:..\Common/main.c ****     }
 194:..\Common/main.c ****     else
 195:..\Common/main.c ****     {
 196:..\Common/main.c ****         Second_Counter++;
  74              		.loc 1 196 0
  75 003e 0133     		add	r3, r3, #1
  76 0040 044A     		ldr	r2, .L6+8
  77 0042 1370     		strb	r3, [r2]
  78              	.L5:
 197:..\Common/main.c ****     }
 198:..\Common/main.c **** 
 199:..\Common/main.c ****     /* Clear interrupt status in an interrupt controller */
 200:..\Common/main.c ****     PWM_ClearInterrupt(PWM_INTR_MASK_TC);
  79              		.loc 1 200 0
  80 0044 0120     		mov	r0, #1
  81 0046 FFF7FEFF 		bl	PWM_ClearInterrupt
  82              	.LVL1:
 201:..\Common/main.c **** }
  83              		.loc 1 201 0
  84              		@ sp needed
ARM GAS  C:\Users\SPITFI~1\AppData\Local\Temp\ccZg12E3.s 			page 6


  85 004a 08BD     		pop	{r3, pc}
  86              	.L7:
  87              		.align	2
  88              	.L6:
  89 004c 00000000 		.word	DelayBeforeShutOff
  90 0050 00000000 		.word	Second_in_Base_60
  91 0054 00000000 		.word	Second_Counter
  92 0058 00000000 		.word	UART_TX_Flag
  93              		.cfi_endproc
  94              	.LFE35:
  95              		.size	PWM_isr, .-PWM_isr
  96              		.section	.text.Push_Button_isr,"ax",%progbits
  97              		.align	2
  98              		.global	Push_Button_isr
  99              		.code	16
 100              		.thumb_func
 101              		.type	Push_Button_isr, %function
 102              	Push_Button_isr:
 103              	.LFB36:
 202:..\Common/main.c **** 
 203:..\Common/main.c **** 
 204:..\Common/main.c **** /*******************************************************************************
 205:..\Common/main.c **** * Function Name: Push_Button_isr
 206:..\Common/main.c **** ********************************************************************************
 207:..\Common/main.c **** * Summary:
 208:..\Common/main.c **** *  Push Button ISR routine code
 209:..\Common/main.c **** *
 210:..\Common/main.c **** * Parameters: None.
 211:..\Common/main.c **** *
 212:..\Common/main.c **** * Return: None.
 213:..\Common/main.c **** *
 214:..\Common/main.c **** *******************************************************************************/
 215:..\Common/main.c **** CY_ISR_PROTO(Push_Button_isr)
 216:..\Common/main.c **** {
 104              		.loc 1 216 0
 105              		.cfi_startproc
 106 0000 08B5     		push	{r3, lr}
 107              		.cfi_def_cfa_offset 8
 108              		.cfi_offset 3, -8
 109              		.cfi_offset 14, -4
 217:..\Common/main.c ****     Push_Button_Interrupt_Flag = 1;
 110              		.loc 1 217 0
 111 0002 0122     		mov	r2, #1
 112 0004 024B     		ldr	r3, .L9
 113 0006 1A70     		strb	r2, [r3]
 218:..\Common/main.c ****     PUSH_BUTTON_INPUT_ClearInterrupt();
 114              		.loc 1 218 0
 115 0008 FFF7FEFF 		bl	PUSH_BUTTON_INPUT_ClearInterrupt
 116              	.LVL2:
 219:..\Common/main.c **** }
 117              		.loc 1 219 0
 118              		@ sp needed
 119 000c 08BD     		pop	{r3, pc}
 120              	.L10:
 121 000e C046     		.align	2
 122              	.L9:
 123 0010 00000000 		.word	Push_Button_Interrupt_Flag
ARM GAS  C:\Users\SPITFI~1\AppData\Local\Temp\ccZg12E3.s 			page 7


 124              		.cfi_endproc
 125              	.LFE36:
 126              		.size	Push_Button_isr, .-Push_Button_isr
 127              		.section	.text.main,"ax",%progbits
 128              		.align	2
 129              		.global	main
 130              		.code	16
 131              		.thumb_func
 132              		.type	main, %function
 133              	main:
 134              	.LFB34:
  19:..\Common/main.c ****     
 135              		.loc 1 19 0
 136              		.cfi_startproc
 137 0000 10B5     		push	{r4, lr}
 138              		.cfi_def_cfa_offset 8
 139              		.cfi_offset 4, -8
 140              		.cfi_offset 14, -4
  22:..\Common/main.c ****     
 141              		.loc 1 22 0
 142              	@ 22 "..\Common\main.c" 1
 143 0002 62B6     		CPSIE   i
 144              	@ 0 "" 2
  25:..\Common/main.c ****     
 145              		.loc 1 25 0
 146              		.code	16
 147 0004 FF20     		mov	r0, #255
 148 0006 FFF7FEFF 		bl	PWM_CLOCK_StartEx
 149              	.LVL3:
  34:..\Common/main.c ****         UART_TX_Flag = 0;
 150              		.loc 1 34 0
 151 000a FFF7FEFF 		bl	SW_Tx_UART_Start
 152              	.LVL4:
  35:..\Common/main.c ****     #endif
 153              		.loc 1 35 0
 154 000e 0024     		mov	r4, #0
 155 0010 344B     		ldr	r3, .L20
 156 0012 1C70     		strb	r4, [r3]
  38:..\Common/main.c **** 
 157              		.loc 1 38 0
 158 0014 FFF7FEFF 		bl	PWM_Start
 159              	.LVL5:
  42:..\Common/main.c ****     Push_Button_isr_StartEx( Push_Button_isr );
 160              		.loc 1 42 0
 161 0018 3348     		ldr	r0, .L20+4
 162 001a FFF7FEFF 		bl	PWM_isr_StartEx
 163              	.LVL6:
  43:..\Common/main.c **** 
 164              		.loc 1 43 0
 165 001e 3348     		ldr	r0, .L20+8
 166 0020 FFF7FEFF 		bl	Push_Button_isr_StartEx
 167              	.LVL7:
  46:..\Common/main.c ****     Second_in_Base_60 = ( DelayBeforeShutOff / OVERFLOW_PER_SECOND );
 168              		.loc 1 46 0
 169 0024 324A     		ldr	r2, .L20+12
 170 0026 334B     		ldr	r3, .L20+16
 171 0028 1A60     		str	r2, [r3]
ARM GAS  C:\Users\SPITFI~1\AppData\Local\Temp\ccZg12E3.s 			page 8


  47:..\Common/main.c ****     Push_Button_Interrupt_Flag = 0;
 172              		.loc 1 47 0
 173 002a 3C22     		mov	r2, #60
 174 002c 324B     		ldr	r3, .L20+20
 175 002e 1A70     		strb	r2, [r3]
  48:..\Common/main.c ****     Second_Counter = 0;
 176              		.loc 1 48 0
 177 0030 324B     		ldr	r3, .L20+24
 178 0032 1C70     		strb	r4, [r3]
  49:..\Common/main.c **** 
 179              		.loc 1 49 0
 180 0034 324B     		ldr	r3, .L20+28
 181 0036 1C70     		strb	r4, [r3]
 182              	.L16:
  54:..\Common/main.c ****         {
 183              		.loc 1 54 0
 184 0038 2E4B     		ldr	r3, .L20+16
 185 003a 1B68     		ldr	r3, [r3]
 186 003c 002B     		cmp	r3, #0
 187 003e 05D1     		bne	.L12
  56:..\Common/main.c ****             PWM_WriteCompare( LOW_GLOW );
 188              		.loc 1 56 0
 189 0040 0020     		mov	r0, #0
 190 0042 FFF7FEFF 		bl	SUPPLY_ENABLE_Write
 191              	.LVL8:
  57:..\Common/main.c ****         }
 192              		.loc 1 57 0
 193 0046 2F48     		ldr	r0, .L20+32
 194 0048 FFF7FEFF 		bl	PWM_WriteCompare
 195              	.LVL9:
 196              	.L12:
  65:..\Common/main.c ****         {
 197              		.loc 1 65 0
 198 004c 2B4B     		ldr	r3, .L20+24
 199 004e 1B78     		ldrb	r3, [r3]
 200 0050 012B     		cmp	r3, #1
 201 0052 12D1     		bne	.L13
  68:..\Common/main.c ****             
 202              		.loc 1 68 0
 203 0054 0120     		mov	r0, #1
 204 0056 FFF7FEFF 		bl	SUPPLY_ENABLE_Write
 205              	.LVL10:
  71:..\Common/main.c ****             
 206              		.loc 1 71 0
 207 005a 0022     		mov	r2, #0
 208 005c 274B     		ldr	r3, .L20+24
 209 005e 1A70     		strb	r2, [r3]
  74:..\Common/main.c ****             Second_in_Base_60 = ( DelayBeforeShutOff / OVERFLOW_PER_SECOND );
 210              		.loc 1 74 0
 211 0060 234A     		ldr	r2, .L20+12
 212 0062 244B     		ldr	r3, .L20+16
 213 0064 1A60     		str	r2, [r3]
  75:..\Common/main.c ****   
 214              		.loc 1 75 0
 215 0066 3C22     		mov	r2, #60
 216 0068 234B     		ldr	r3, .L20+20
 217 006a 1A70     		strb	r2, [r3]
ARM GAS  C:\Users\SPITFI~1\AppData\Local\Temp\ccZg12E3.s 			page 9


  78:..\Common/main.c ****             PWM_ClearInterrupt(PWM_INTR_MASK_TC);
 218              		.loc 1 78 0
 219 006c 1E48     		ldr	r0, .L20+4
 220 006e FFF7FEFF 		bl	PWM_isr_StartEx
 221              	.LVL11:
  79:..\Common/main.c ****         }
 222              		.loc 1 79 0
 223 0072 0120     		mov	r0, #1
 224 0074 FFF7FEFF 		bl	PWM_ClearInterrupt
 225              	.LVL12:
 226 0078 0EE0     		b	.L14
 227              	.L13:
  84:..\Common/main.c ****             {
 228              		.loc 1 84 0
 229 007a 1E4B     		ldr	r3, .L20+16
 230 007c 1B68     		ldr	r3, [r3]
 231 007e 002B     		cmp	r3, #0
 232 0080 0AD0     		beq	.L14
  86:..\Common/main.c ****                 {
 233              		.loc 1 86 0
 234 0082 1F4B     		ldr	r3, .L20+28
 235 0084 1B78     		ldrb	r3, [r3]
 236 0086 632B     		cmp	r3, #99
 237 0088 03D8     		bhi	.L15
  88:..\Common/main.c ****                 }
 238              		.loc 1 88 0
 239 008a 1F48     		ldr	r0, .L20+36
 240 008c FFF7FEFF 		bl	PWM_WriteCompare
 241              	.LVL13:
 242 0090 02E0     		b	.L14
 243              	.L15:
  92:..\Common/main.c ****                 }
 244              		.loc 1 92 0
 245 0092 1E48     		ldr	r0, .L20+40
 246 0094 FFF7FEFF 		bl	PWM_WriteCompare
 247              	.LVL14:
 248              	.L14:
 104:..\Common/main.c ****             {
 249              		.loc 1 104 0
 250 0098 124B     		ldr	r3, .L20
 251 009a 1B78     		ldrb	r3, [r3]
 252 009c 012B     		cmp	r3, #1
 253 009e CBD1     		bne	.L16
 106:..\Common/main.c ****                 SW_Tx_UART_PutCRLF();
 254              		.loc 1 106 0
 255 00a0 1B48     		ldr	r0, .L20+44
 256 00a2 FFF7FEFF 		bl	SW_Tx_UART_PutString
 257              	.LVL15:
 107:..\Common/main.c ****                 SW_Tx_UART_PutString("Operating Mode: ");
 258              		.loc 1 107 0
 259 00a6 FFF7FEFF 		bl	SW_Tx_UART_PutCRLF
 260              	.LVL16:
 108:..\Common/main.c ****                 if( Mode == 0 )
 261              		.loc 1 108 0
 262 00aa 1A48     		ldr	r0, .L20+48
 263 00ac FFF7FEFF 		bl	SW_Tx_UART_PutString
 264              	.LVL17:
ARM GAS  C:\Users\SPITFI~1\AppData\Local\Temp\ccZg12E3.s 			page 10


 109:..\Common/main.c ****                 {
 265              		.loc 1 109 0
 266 00b0 194B     		ldr	r3, .L20+52
 267 00b2 1B78     		ldrb	r3, [r3]
 268 00b4 002B     		cmp	r3, #0
 269 00b6 03D1     		bne	.L17
 111:..\Common/main.c ****                 }
 270              		.loc 1 111 0
 271 00b8 1848     		ldr	r0, .L20+56
 272 00ba FFF7FEFF 		bl	SW_Tx_UART_PutString
 273              	.LVL18:
 274 00be 02E0     		b	.L18
 275              	.L17:
 115:..\Common/main.c ****                 }
 276              		.loc 1 115 0
 277 00c0 1748     		ldr	r0, .L20+60
 278 00c2 FFF7FEFF 		bl	SW_Tx_UART_PutString
 279              	.LVL19:
 280              	.L18:
 117:..\Common/main.c ****                 SW_Tx_UART_PutString("Seconds remaning: ");
 281              		.loc 1 117 0
 282 00c6 FFF7FEFF 		bl	SW_Tx_UART_PutCRLF
 283              	.LVL20:
 118:..\Common/main.c ****                 SW_Tx_UART_PutHexInt( Second_in_Base_60 );
 284              		.loc 1 118 0
 285 00ca 1648     		ldr	r0, .L20+64
 286 00cc FFF7FEFF 		bl	SW_Tx_UART_PutString
 287              	.LVL21:
 119:..\Common/main.c ****                 SW_Tx_UART_PutCRLF();
 288              		.loc 1 119 0
 289 00d0 094B     		ldr	r3, .L20+20
 290 00d2 1878     		ldrb	r0, [r3]
 291 00d4 FFF7FEFF 		bl	SW_Tx_UART_PutHexInt
 292              	.LVL22:
 120:..\Common/main.c ****                 UART_TX_Flag = 0;
 293              		.loc 1 120 0
 294 00d8 FFF7FEFF 		bl	SW_Tx_UART_PutCRLF
 295              	.LVL23:
 121:..\Common/main.c ****             }
 296              		.loc 1 121 0
 297 00dc 0022     		mov	r2, #0
 298 00de 014B     		ldr	r3, .L20
 299 00e0 1A70     		strb	r2, [r3]
 300 00e2 A9E7     		b	.L16
 301              	.L21:
 302              		.align	2
 303              	.L20:
 304 00e4 00000000 		.word	UART_TX_Flag
 305 00e8 00000000 		.word	PWM_isr
 306 00ec 00000000 		.word	Push_Button_isr
 307 00f0 E02E0000 		.word	12000
 308 00f4 00000000 		.word	DelayBeforeShutOff
 309 00f8 00000000 		.word	Second_in_Base_60
 310 00fc 00000000 		.word	Push_Button_Interrupt_Flag
 311 0100 00000000 		.word	Second_Counter
 312 0104 983A0000 		.word	15000
 313 0108 30750000 		.word	30000
ARM GAS  C:\Users\SPITFI~1\AppData\Local\Temp\ccZg12E3.s 			page 11


 314 010c 60EA0000 		.word	60000
 315 0110 00000000 		.word	.LC12
 316 0114 1C000000 		.word	.LC14
 317 0118 00000000 		.word	Mode
 318 011c 30000000 		.word	.LC17
 319 0120 3C000000 		.word	.LC19
 320 0124 44000000 		.word	.LC21
 321              		.cfi_endproc
 322              	.LFE34:
 323              		.size	main, .-main
 324              		.global	__aeabi_i2d
 325              		.global	__aeabi_dadd
 326              		.global	__aeabi_d2uiz
 327              		.section	.text.GetTimeBitsValue,"ax",%progbits
 328              		.align	2
 329              		.global	GetTimeBitsValue
 330              		.code	16
 331              		.thumb_func
 332              		.type	GetTimeBitsValue, %function
 333              	GetTimeBitsValue:
 334              	.LFB37:
 220:..\Common/main.c **** 
 221:..\Common/main.c **** /*******************************************************************************
 222:..\Common/main.c **** * Function Name: ExecuteI2CCommand
 223:..\Common/main.c **** ********************************************************************************
 224:..\Common/main.c **** * Summary:
 225:..\Common/main.c **** *  Executes received command to control the LED color and returns status.
 226:..\Common/main.c **** *  If the command is unknown, the LED color is not changed.
 227:..\Common/main.c **** *
 228:..\Common/main.c **** * Parameters:
 229:..\Common/main.c **** *  cmd: command to execute. Available commands:
 230:..\Common/main.c **** 
 231:..\Common/main.c **** *
 232:..\Common/main.c **** * Return:
 233:..\Common/main.c **** *  Returns status of command execution. There are two statuses
 234:..\Common/main.c **** *  - STS_CMD_DONE: command is executed successfully.
 235:..\Common/main.c **** *  - STS_CMD_FAIL: unknown command
 236:..\Common/main.c **** *
 237:..\Common/main.c **** *******************************************************************************/
 238:..\Common/main.c **** #if( COMMUNICATION_LAYER == I2C_MODE )
 239:..\Common/main.c **** uint8 ExecuteI2CCommand( uint32 cmd, uint8 cmdparam )
 240:..\Common/main.c **** {
 241:..\Common/main.c ****     uint8 status;
 242:..\Common/main.c **** 
 243:..\Common/main.c ****     status = STS_CMD_DONE;
 244:..\Common/main.c **** 
 245:..\Common/main.c ****     /* Execute received command */
 246:..\Common/main.c ****     switch (cmd)
 247:..\Common/main.c ****     {
 248:..\Common/main.c ****         case CMD_SET_OUPUT_ON:
 249:..\Common/main.c ****             SUPPLY_ENABLE_Write( HIGH ); 
 250:..\Common/main.c ****             break;
 251:..\Common/main.c **** 
 252:..\Common/main.c ****         case CMD_SET_OUTPUT_OFF:
 253:..\Common/main.c ****             SUPPLY_ENABLE_Write( LOW ); 
 254:..\Common/main.c ****             break;
 255:..\Common/main.c **** 
ARM GAS  C:\Users\SPITFI~1\AppData\Local\Temp\ccZg12E3.s 			page 12


 256:..\Common/main.c ****         case CMD_SET_MODE:
 257:..\Common/main.c ****             Mode = i2cReadBuffer[ PACKET_CMD_POS ];
 258:..\Common/main.c ****             break;
 259:..\Common/main.c **** 
 260:..\Common/main.c ****         case CMD_SET_SHUT_OFF_DELAY_MSB:
 261:..\Common/main.c ****             DelayBeforeShutOff = cmdparam;
 262:..\Common/main.c ****             DelayBeforeShutOff = DelayBeforeShutOff << 24;
 263:..\Common/main.c ****             break;
 264:..\Common/main.c ****         
 265:..\Common/main.c ****         case CMD_SET_SHUT_OFF_DELAY_THRDB:
 266:..\Common/main.c ****             DelayBeforeShutOff = cmdparam;
 267:..\Common/main.c ****             DelayBeforeShutOff = DelayBeforeShutOff << 16;
 268:..\Common/main.c ****             break;
 269:..\Common/main.c ****         
 270:..\Common/main.c ****         case CMD_SET_SHUT_OFF_DELAY_SCNDB:
 271:..\Common/main.c ****             DelayBeforeShutOff = cmdparam;
 272:..\Common/main.c ****             DelayBeforeShutOff = DelayBeforeShutOff << 8;
 273:..\Common/main.c ****             break;
 274:..\Common/main.c ****         
 275:..\Common/main.c ****         case CMD_SET_SHUT_OFF_DELAY_LSB:
 276:..\Common/main.c ****             DelayBeforeShutOff += cmdparam;
 277:..\Common/main.c ****             break;
 278:..\Common/main.c ****         
 279:..\Common/main.c ****         case CMD_SET_ON_TIME_DELAY_MSB:
 280:..\Common/main.c ****             ON_Time = cmdparam;
 281:..\Common/main.c ****             ON_Time = ON_Time << 24;
 282:..\Common/main.c ****             break;
 283:..\Common/main.c ****         
 284:..\Common/main.c ****         case CMD_SET_ON_TIME_DELAY_THRDB:
 285:..\Common/main.c ****             ON_Time = cmdparam;
 286:..\Common/main.c ****             ON_Time = ON_Time << 16;
 287:..\Common/main.c ****             break;
 288:..\Common/main.c ****         
 289:..\Common/main.c ****         case CMD_SET_ON_TIME_DELAY_SCNDB:
 290:..\Common/main.c ****             ON_Time = cmdparam;
 291:..\Common/main.c ****             ON_Time = ON_Time << 8;
 292:..\Common/main.c ****             break;
 293:..\Common/main.c ****         
 294:..\Common/main.c ****         case CMD_SET_ON_TIME_DELAY_LSB:
 295:..\Common/main.c ****             ON_Time += cmdparam;
 296:..\Common/main.c ****             break;
 297:..\Common/main.c ****         
 298:..\Common/main.c ****         case CMD_SET_OFF_TIME_DELAY_MSB:
 299:..\Common/main.c ****             OFF_Time = cmdparam;
 300:..\Common/main.c ****             OFF_Time = OFF_Time << 24;
 301:..\Common/main.c ****             break;
 302:..\Common/main.c ****         
 303:..\Common/main.c ****         case CMD_SET_OFF_TIME_DELAY_THRDB:
 304:..\Common/main.c ****             OFF_Time = cmdparam;
 305:..\Common/main.c ****             OFF_Time = OFF_Time << 16;
 306:..\Common/main.c ****             break;
 307:..\Common/main.c ****         
 308:..\Common/main.c ****         case CMD_SET_OFF_TIME_DELAY_SCNDB:
 309:..\Common/main.c ****             OFF_Time = cmdparam;
 310:..\Common/main.c ****             OFF_Time = OFF_Time << 8;
 311:..\Common/main.c ****             break;
 312:..\Common/main.c ****         
ARM GAS  C:\Users\SPITFI~1\AppData\Local\Temp\ccZg12E3.s 			page 13


 313:..\Common/main.c ****         case CMD_SET_OFF_TIME_DELAY_LSB:
 314:..\Common/main.c ****             OFF_Time += cmdparam;
 315:..\Common/main.c ****             break;
 316:..\Common/main.c ****         
 317:..\Common/main.c ****         case CMD_SET_DEVICE_ADDRESS:
 318:..\Common/main.c ****              I2C_I2CSlaveSetAddress( cmdparam );
 319:..\Common/main.c ****             break;
 320:..\Common/main.c ****             
 321:..\Common/main.c ****         case STS_CMD_BUTTON_EVENT:
 322:..\Common/main.c ****             /* To be added */
 323:..\Common/main.c ****             break;
 324:..\Common/main.c **** 
 325:..\Common/main.c ****         default:
 326:..\Common/main.c ****             status = STS_CMD_FAIL;
 327:..\Common/main.c ****             break;
 328:..\Common/main.c ****     }
 329:..\Common/main.c **** 
 330:..\Common/main.c ****     return (status);
 331:..\Common/main.c **** }
 332:..\Common/main.c **** #else
 333:..\Common/main.c **** #endif
 334:..\Common/main.c **** 
 335:..\Common/main.c **** /*******************************************************************************
 336:..\Common/main.c **** * Function Name: GetTimeBitsValue
 337:..\Common/main.c **** ********************************************************************************
 338:..\Common/main.c **** * Summary:
 339:..\Common/main.c **** *  Reads the time bits to calculate the delay before shut-off.
 340:..\Common/main.c **** *
 341:..\Common/main.c **** * Parameters:
 342:..\Common/main.c **** *  None.
 343:..\Common/main.c **** *
 344:..\Common/main.c **** * Return:
 345:..\Common/main.c **** *  Returns the hex value of the time bits inputs with mode input as MSB
 346:..\Common/main.c **** *
 347:..\Common/main.c **** *******************************************************************************/
 348:..\Common/main.c **** #if( IC_PACKAGE == SOIC_16 )
 349:..\Common/main.c **** uint8 GetTimeBitsValue( void )
 350:..\Common/main.c **** {
 335              		.loc 1 350 0
 336              		.cfi_startproc
 337 0000 10B5     		push	{r4, lr}
 338              		.cfi_def_cfa_offset 8
 339              		.cfi_offset 4, -8
 340              		.cfi_offset 14, -4
 341              	.LVL24:
 351:..\Common/main.c ****     uint8 lTime = 0;
 352:..\Common/main.c ****    
 353:..\Common/main.c ****     if( Time_Bit_0_Read() == 1 )
 342              		.loc 1 353 0
 343 0002 FFF7FEFF 		bl	Time_Bit_0_Read
 344              	.LVL25:
 345 0006 0128     		cmp	r0, #1
 346 0008 01D1     		bne	.L28
 354:..\Common/main.c ****     {
 355:..\Common/main.c ****         lTime += pow( 2 , 0 );
 347              		.loc 1 355 0
 348 000a 0124     		mov	r4, #1
ARM GAS  C:\Users\SPITFI~1\AppData\Local\Temp\ccZg12E3.s 			page 14


 349 000c 00E0     		b	.L23
 350              	.L28:
 356:..\Common/main.c ****     }
 357:..\Common/main.c ****     else
 358:..\Common/main.c ****     {
 359:..\Common/main.c ****         lTime += 0;
 351              		.loc 1 359 0
 352 000e 0024     		mov	r4, #0
 353              	.L23:
 354              	.LVL26:
 360:..\Common/main.c ****     }
 361:..\Common/main.c ****     
 362:..\Common/main.c ****     if( Time_Bit_1_Read() == 1 )
 355              		.loc 1 362 0
 356 0010 FFF7FEFF 		bl	Time_Bit_1_Read
 357              	.LVL27:
 358 0014 0128     		cmp	r0, #1
 359 0016 0AD1     		bne	.L24
 363:..\Common/main.c ****     {
 364:..\Common/main.c ****         lTime += pow( 2 , 1 );
 360              		.loc 1 364 0
 361 0018 201C     		mov	r0, r4
 362 001a FFF7FEFF 		bl	__aeabi_i2d
 363              	.LVL28:
 364 001e 0022     		mov	r2, #0
 365 0020 8023     		mov	r3, #128
 366 0022 DB05     		lsl	r3, r3, #23
 367 0024 FFF7FEFF 		bl	__aeabi_dadd
 368              	.LVL29:
 369 0028 FFF7FEFF 		bl	__aeabi_d2uiz
 370              	.LVL30:
 371 002c C4B2     		uxtb	r4, r0
 372              	.LVL31:
 373              	.L24:
 365:..\Common/main.c ****     }
 366:..\Common/main.c ****     else
 367:..\Common/main.c ****     {
 368:..\Common/main.c ****         lTime += 0;
 369:..\Common/main.c ****     }
 370:..\Common/main.c ****     
 371:..\Common/main.c ****     if( Time_Bit_2_Read() == 1 )
 374              		.loc 1 371 0
 375 002e FFF7FEFF 		bl	Time_Bit_2_Read
 376              	.LVL32:
 377 0032 0128     		cmp	r0, #1
 378 0034 09D1     		bne	.L25
 372:..\Common/main.c ****     {
 373:..\Common/main.c ****         lTime += pow( 2 , 2 );
 379              		.loc 1 373 0
 380 0036 201C     		mov	r0, r4
 381 0038 FFF7FEFF 		bl	__aeabi_i2d
 382              	.LVL33:
 383 003c 0022     		mov	r2, #0
 384 003e 124B     		ldr	r3, .L29
 385 0040 FFF7FEFF 		bl	__aeabi_dadd
 386              	.LVL34:
 387 0044 FFF7FEFF 		bl	__aeabi_d2uiz
ARM GAS  C:\Users\SPITFI~1\AppData\Local\Temp\ccZg12E3.s 			page 15


 388              	.LVL35:
 389 0048 C4B2     		uxtb	r4, r0
 390              	.LVL36:
 391              	.L25:
 374:..\Common/main.c ****     }
 375:..\Common/main.c ****     else
 376:..\Common/main.c ****     {
 377:..\Common/main.c ****         lTime += 0;
 378:..\Common/main.c ****     }
 379:..\Common/main.c ****     
 380:..\Common/main.c ****     if( Time_Bit_3_Read() == 1 )
 392              		.loc 1 380 0
 393 004a FFF7FEFF 		bl	Time_Bit_3_Read
 394              	.LVL37:
 395 004e 0128     		cmp	r0, #1
 396 0050 09D1     		bne	.L26
 381:..\Common/main.c ****     {
 382:..\Common/main.c ****         lTime += pow( 2 , 3 );
 397              		.loc 1 382 0
 398 0052 201C     		mov	r0, r4
 399 0054 FFF7FEFF 		bl	__aeabi_i2d
 400              	.LVL38:
 401 0058 0022     		mov	r2, #0
 402 005a 0C4B     		ldr	r3, .L29+4
 403 005c FFF7FEFF 		bl	__aeabi_dadd
 404              	.LVL39:
 405 0060 FFF7FEFF 		bl	__aeabi_d2uiz
 406              	.LVL40:
 407 0064 C4B2     		uxtb	r4, r0
 408              	.LVL41:
 409              	.L26:
 383:..\Common/main.c ****     }
 384:..\Common/main.c ****     else
 385:..\Common/main.c ****     {
 386:..\Common/main.c ****         lTime += 0;
 387:..\Common/main.c ****     }
 388:..\Common/main.c ****     
 389:..\Common/main.c ****     if( Mode_Read() == 1 )
 410              		.loc 1 389 0
 411 0066 FFF7FEFF 		bl	Mode_Read
 412              	.LVL42:
 413 006a 0128     		cmp	r0, #1
 414 006c 09D1     		bne	.L27
 390:..\Common/main.c ****     {
 391:..\Common/main.c ****         lTime += pow( 2 , 4 );
 415              		.loc 1 391 0
 416 006e 201C     		mov	r0, r4
 417 0070 FFF7FEFF 		bl	__aeabi_i2d
 418              	.LVL43:
 419 0074 0022     		mov	r2, #0
 420 0076 064B     		ldr	r3, .L29+8
 421 0078 FFF7FEFF 		bl	__aeabi_dadd
 422              	.LVL44:
 423 007c FFF7FEFF 		bl	__aeabi_d2uiz
 424              	.LVL45:
 425 0080 C4B2     		uxtb	r4, r0
 426              	.LVL46:
ARM GAS  C:\Users\SPITFI~1\AppData\Local\Temp\ccZg12E3.s 			page 16


 427              	.L27:
 392:..\Common/main.c ****     }
 393:..\Common/main.c ****     else
 394:..\Common/main.c ****     {
 395:..\Common/main.c ****         lTime += 0;
 396:..\Common/main.c ****     }
 397:..\Common/main.c ****     
 398:..\Common/main.c ****     return lTime;
 399:..\Common/main.c **** }
 428              		.loc 1 399 0
 429 0082 201C     		mov	r0, r4
 430              		@ sp needed
 431              	.LVL47:
 432 0084 10BD     		pop	{r4, pc}
 433              	.L30:
 434 0086 C046     		.align	2
 435              	.L29:
 436 0088 00001040 		.word	1074790400
 437 008c 00002040 		.word	1075838976
 438 0090 00003040 		.word	1076887552
 439              		.cfi_endproc
 440              	.LFE37:
 441              		.size	GetTimeBitsValue, .-GetTimeBitsValue
 442              		.comm	UART_Tx_Size,1,1
 443              		.comm	UART_Buffer,32,4
 444              		.comm	UART_TX_Flag,1,1
 445              		.comm	Push_Button_Interrupt_Flag,1,1
 446              		.comm	Second_in_Base_60,1,1
 447              		.comm	Mode,1,1
 448              		.comm	Second_Counter,1,1
 449              		.comm	Push_Button_State_Value,1,1
 450              		.comm	OFF_Time,4,4
 451              		.comm	ON_Time,4,4
 452              		.comm	DelayBeforeShutOff,4,4
 453              		.section	.rodata.str1.4,"aMS",%progbits,1
 454              		.align	2
 455              	.LC12:
 456 0000 2D2D2D2D 		.ascii	"--------------------------\000"
 456      2D2D2D2D 
 456      2D2D2D2D 
 456      2D2D2D2D 
 456      2D2D2D2D 
 457 001b 00       		.space	1
 458              	.LC14:
 459 001c 4F706572 		.ascii	"Operating Mode: \000"
 459      6174696E 
 459      67204D6F 
 459      64653A20 
 459      00
 460 002d 000000   		.space	3
 461              	.LC17:
 462 0030 53687574 		.ascii	"Shuttoff\000"
 462      746F6666 
 462      00
 463 0039 000000   		.space	3
 464              	.LC19:
 465 003c 546F6767 		.ascii	"Toggle\000"
ARM GAS  C:\Users\SPITFI~1\AppData\Local\Temp\ccZg12E3.s 			page 17


 465      6C6500
 466 0043 00       		.space	1
 467              	.LC21:
 468 0044 5365636F 		.ascii	"Seconds remaning: \000"
 468      6E647320 
 468      72656D61 
 468      6E696E67 
 468      3A2000
 469 0057 00       		.text
 470              	.Letext0:
 471              		.file 2 "Generated_Source\\PSoC4/cytypes.h"
 472              		.file 3 "..\\Common\\main.h"
 473              		.file 4 "Generated_Source\\PSoC4/PWM.h"
 474              		.file 5 "Generated_Source\\PSoC4/PWM_CLOCK.h"
 475              		.file 6 "Generated_Source\\PSoC4/PWM_isr.h"
 476              		.file 7 "Generated_Source\\PSoC4/SW_Tx_UART.h"
 477              		.file 8 "Generated_Source\\PSoC4/Push_Button_isr.h"
 478              		.file 9 "Generated_Source\\PSoC4/SUPPLY_ENABLE.h"
 479              		.file 10 "Generated_Source\\PSoC4/PUSH_BUTTON_INPUT.h"
 480              		.file 11 "Generated_Source\\PSoC4/Time_Bit_0.h"
 481              		.file 12 "Generated_Source\\PSoC4/Time_Bit_1.h"
 482              		.file 13 "Generated_Source\\PSoC4/Time_Bit_2.h"
 483              		.file 14 "Generated_Source\\PSoC4/Time_Bit_3.h"
 484              		.file 15 "Generated_Source\\PSoC4/Mode.h"