ARM GAS  C:\Users\SPITFI~1\AppData\Local\Temp\ccgJqqNs.s 			page 1


   1              		.cpu cortex-m0
   2              		.fpu softvfp
   3              		.eabi_attribute 20, 1
   4              		.eabi_attribute 21, 1
   5              		.eabi_attribute 23, 3
   6              		.eabi_attribute 24, 1
   7              		.eabi_attribute 25, 1
   8              		.eabi_attribute 26, 1
   9              		.eabi_attribute 30, 1
  10              		.eabi_attribute 34, 0
  11              		.eabi_attribute 18, 4
  12              		.code	16
  13              		.file	"main.c"
  14              		.text
  15              	.Ltext0:
  16              		.cfi_sections	.debug_frame
  17              		.section	.text.PWM_isr,"ax",%progbits
  18              		.align	2
  19              		.global	PWM_isr
  20              		.code	16
  21              		.thumb_func
  22              		.type	PWM_isr, %function
  23              	PWM_isr:
  24              	.LFB35:
  25              		.file 1 ".\\main.c"
   1:.\main.c      **** /* ========================================
   2:.\main.c      ****  *
   3:.\main.c      ****  * Copyright YOUR COMPANY, THE YEAR
   4:.\main.c      ****  * All Rights Reserved
   5:.\main.c      ****  * UNPUBLISHED, LICENSED SOFTWARE.
   6:.\main.c      ****  *
   7:.\main.c      ****  * CONFIDENTIAL AND PROPRIETARY INFORMATION
   8:.\main.c      ****  * WHICH IS THE PROPERTY OF your company.
   9:.\main.c      ****  *
  10:.\main.c      ****  * ========================================
  11:.\main.c      **** */
  12:.\main.c      **** 
  13:.\main.c      **** /* All includes, defines and global variables are declared in main.h */
  14:.\main.c      **** #include "main.h"
  15:.\main.c      **** #include <stdio.h>
  16:.\main.c      **** 
  17:.\main.c      **** /* I2C slave read and write buffers */
  18:.\main.c      **** uint8 i2cReadBuffer [BUFFER_SIZE] = {PACKET_SOP, STS_CMD_FAIL, STS_CMD_FAIL, PACKET_EOP};
  19:.\main.c      **** uint8 i2cWriteBuffer[BUFFER_SIZE];
  20:.\main.c      **** 
  21:.\main.c      **** int main()
  22:.\main.c      **** {
  23:.\main.c      ****     /* Enabling global interrupts */
  24:.\main.c      ****     CyGlobalIntEnable;
  25:.\main.c      ****     
  26:.\main.c      ****     /* Starting all devices */
  27:.\main.c      ****     PWM_CLOCK_Start();
  28:.\main.c      ****     
  29:.\main.c      ****     /* Starting components */
  30:.\main.c      ****     I2C_I2CSlaveInitReadBuf (i2cReadBuffer,  BUFFER_SIZE);
  31:.\main.c      ****     I2C_I2CSlaveInitWriteBuf(i2cWriteBuffer, BUFFER_SIZE);
  32:.\main.c      ****     I2C_Start();
ARM GAS  C:\Users\SPITFI~1\AppData\Local\Temp\ccgJqqNs.s 			page 2


  33:.\main.c      ****     PWM_Start();
  34:.\main.c      **** //    SW_Tx_UART_Start();
  35:.\main.c      ****     
  36:.\main.c      ****     /* Configure ISR */
  37:.\main.c      ****     PWM_isr_StartEx( PWM_isr );
  38:.\main.c      ****     Push_Button_isr_StartEx( Push_Button_isr );
  39:.\main.c      **** 
  40:.\main.c      ****     /* Variables default values */
  41:.\main.c      ****     DelayBeforeShutOff = DEFAULT_TIMEOUT;
  42:.\main.c      ****     Second_in_Base_60 = ( DelayBeforeShutOff / OVERFLOW_PER_SECOND );
  43:.\main.c      ****     Push_Button_Interrupt_Flag = 0;
  44:.\main.c      ****     Second_Counter = 0;
  45:.\main.c      ****     UART_TX_Flag = 0;
  46:.\main.c      ****     I2C_Status = 0xFE;
  47:.\main.c      **** 
  48:.\main.c      ****     for(;;)
  49:.\main.c      ****     {
  50:.\main.c      ****         /* Disabling the SUPPLY ENABLE if timeout has been reached */
  51:.\main.c      ****         if( DelayBeforeShutOff == 0 )
  52:.\main.c      ****         {
  53:.\main.c      ****             SUPPLY_ENABLE_Write( LOW ); 
  54:.\main.c      ****             PWM_WriteCompare( LOW_GLOW );
  55:.\main.c      ****         }
  56:.\main.c      ****         else
  57:.\main.c      ****         {
  58:.\main.c      ****             /* Continue */
  59:.\main.c      ****         }
  60:.\main.c      ****         
  61:.\main.c      ****         /* Check if push button has been toggled */
  62:.\main.c      ****         if( Push_Button_Interrupt_Flag == 1 )
  63:.\main.c      ****         {
  64:.\main.c      ****             /* Activating the output */
  65:.\main.c      ****             SUPPLY_ENABLE_Write( HIGH ); 
  66:.\main.c      ****             
  67:.\main.c      ****             /* Clearing the pushbutton interrupt flag */
  68:.\main.c      ****             Push_Button_Interrupt_Flag = 0;
  69:.\main.c      ****             
  70:.\main.c      ****             /* Resetting the counter if timeout occured */
  71:.\main.c      ****             DelayBeforeShutOff = DEFAULT_TIMEOUT;
  72:.\main.c      ****             Second_in_Base_60 = ( DelayBeforeShutOff / OVERFLOW_PER_SECOND );
  73:.\main.c      ****   
  74:.\main.c      ****             /* Restarting the interrupt if it has been stopped */
  75:.\main.c      ****             PWM_isr_StartEx(PWM_isr);
  76:.\main.c      ****             PWM_ClearInterrupt(PWM_INTR_MASK_TC);
  77:.\main.c      ****         }
  78:.\main.c      ****         else
  79:.\main.c      ****         {
  80:.\main.c      ****             /* Toggling PWM Compare value depending on seconf counter value */
  81:.\main.c      ****             if( DelayBeforeShutOff != 0 )
  82:.\main.c      ****             {
  83:.\main.c      ****                 if( Second_Counter < ( SECOND_COUNT / 2 ) )
  84:.\main.c      ****                 {
  85:.\main.c      ****                     PWM_WriteCompare( MID_GLOW );
  86:.\main.c      ****                 }
  87:.\main.c      ****                 else
  88:.\main.c      ****                 {
  89:.\main.c      ****                     PWM_WriteCompare( HIGH_GLOW );
ARM GAS  C:\Users\SPITFI~1\AppData\Local\Temp\ccgJqqNs.s 			page 3


  90:.\main.c      ****                 }
  91:.\main.c      ****                 
  92:.\main.c      ****             }
  93:.\main.c      ****             else
  94:.\main.c      ****             {
  95:.\main.c      ****                 /* Continue */
  96:.\main.c      ****             }
  97:.\main.c      ****         }
  98:.\main.c      ****         
  99:.\main.c      ****         /* Check if we must send info over UART */
 100:.\main.c      **** //        if( UART_TX_Flag == 1 )
 101:.\main.c      **** //        {
 102:.\main.c      **** //            SW_Tx_UART_PutString("--------------------------");
 103:.\main.c      **** //            SW_Tx_UART_PutCRLF();
 104:.\main.c      **** //            SW_Tx_UART_PutString("Operating Mode: ");
 105:.\main.c      **** //            if( Mode == 0 )
 106:.\main.c      **** //            {
 107:.\main.c      **** //                SW_Tx_UART_PutString("Shuttoff");
 108:.\main.c      **** //            }
 109:.\main.c      **** //            else
 110:.\main.c      **** //            {
 111:.\main.c      **** //                SW_Tx_UART_PutString("Toggle");
 112:.\main.c      **** //            }
 113:.\main.c      **** //            SW_Tx_UART_PutCRLF();
 114:.\main.c      **** //            SW_Tx_UART_PutString("Seconds remaning: ");
 115:.\main.c      **** //            SW_Tx_UART_PutHexInt( Second_in_Base_60 );
 116:.\main.c      **** //            SW_Tx_UART_PutCRLF();
 117:.\main.c      **** //            UART_TX_Flag = 0;
 118:.\main.c      **** //        }
 119:.\main.c      **** //        else
 120:.\main.c      **** //        {
 121:.\main.c      **** //            /* Continue */
 122:.\main.c      **** //        }
 123:.\main.c      ****         
 124:.\main.c      ****         /* I2C Decode Received Packets */
 125:.\main.c      ****         
 126:.\main.c      ****         if (0u != (I2C_I2CSlaveStatus() & I2C_I2C_SSTAT_WR_CMPLT))
 127:.\main.c      ****         {
 128:.\main.c      ****             /* Check packet length */
 129:.\main.c      ****             if (PACKET_SIZE == I2C_I2CSlaveGetWriteBufSize())
 130:.\main.c      ****             {
 131:.\main.c      ****                 /* Check start and end of packet markers */
 132:.\main.c      ****                 if ((i2cWriteBuffer[PACKET_SOP_POS] == PACKET_SOP) &&
 133:.\main.c      ****                     (i2cWriteBuffer[PACKET_EOP_POS] == PACKET_EOP))
 134:.\main.c      ****                 {
 135:.\main.c      ****                     I2C_Status = ExecuteI2CCommand(i2cWriteBuffer[PACKET_CMD_POS], i2cWriteBuffer[P
 136:.\main.c      ****                 }
 137:.\main.c      ****             }
 138:.\main.c      **** 
 139:.\main.c      ****             /* Clear slave write buffer and status */
 140:.\main.c      ****             I2C_I2CSlaveClearWriteBuf();
 141:.\main.c      ****             (void) I2C_I2CSlaveClearWriteStatus();
 142:.\main.c      **** 
 143:.\main.c      ****             /* Update read buffer */
 144:.\main.c      ****             i2cReadBuffer[PACKET_STS_POS] = I2C_Status;
 145:.\main.c      ****             i2cReadBuffer[PACKET_PARAM_POS] = i2cWriteBuffer[PACKET_PARAM_POS];
 146:.\main.c      ****             I2C_Status = STS_CMD_FAIL;
ARM GAS  C:\Users\SPITFI~1\AppData\Local\Temp\ccgJqqNs.s 			page 4


 147:.\main.c      ****         }
 148:.\main.c      **** 
 149:.\main.c      ****         /* Read complete: expose buffer to master */
 150:.\main.c      ****         if (0u != (I2C_I2CSlaveStatus() & I2C_I2C_SSTAT_RD_CMPLT))
 151:.\main.c      ****         {
 152:.\main.c      ****             /* Clear slave read buffer and status */
 153:.\main.c      ****             I2C_I2CSlaveClearReadBuf();
 154:.\main.c      ****             (void) I2C_I2CSlaveClearReadStatus();
 155:.\main.c      ****         }
 156:.\main.c      ****     }
 157:.\main.c      **** }
 158:.\main.c      **** 
 159:.\main.c      **** /*******************************************************************************
 160:.\main.c      **** * Function Name: PWM_isr
 161:.\main.c      **** ********************************************************************************
 162:.\main.c      **** * Summary:
 163:.\main.c      **** *  PWM module TC interrupt routine code
 164:.\main.c      **** *
 165:.\main.c      **** * Parameters: None.
 166:.\main.c      **** *
 167:.\main.c      **** * Return: None.
 168:.\main.c      **** *
 169:.\main.c      **** *******************************************************************************/
 170:.\main.c      **** CY_ISR(PWM_isr)
 171:.\main.c      **** {
  26              		.loc 1 171 0
  27              		.cfi_startproc
  28 0000 08B5     		push	{r3, lr}
  29              		.cfi_def_cfa_offset 8
  30              		.cfi_offset 3, -8
  31              		.cfi_offset 14, -4
 172:.\main.c      ****     if( DelayBeforeShutOff <= 1 )
  32              		.loc 1 172 0
  33 0002 124B     		ldr	r3, .L6
  34 0004 1B68     		ldr	r3, [r3]
  35 0006 012B     		cmp	r3, #1
  36 0008 07D8     		bhi	.L2
 173:.\main.c      ****     {
 174:.\main.c      ****         DelayBeforeShutOff = 0;
  37              		.loc 1 174 0
  38 000a 0023     		mov	r3, #0
  39 000c 0F4A     		ldr	r2, .L6
  40 000e 1360     		str	r3, [r2]
 175:.\main.c      ****         Second_in_Base_60 = 0;
  41              		.loc 1 175 0
  42 0010 0F4A     		ldr	r2, .L6+4
  43 0012 1370     		strb	r3, [r2]
 176:.\main.c      ****         PWM_isr_Stop();
  44              		.loc 1 176 0
  45 0014 FFF7FEFF 		bl	PWM_isr_Stop
  46              	.LVL0:
  47 0018 02E0     		b	.L3
  48              	.L2:
 177:.\main.c      ****     }
 178:.\main.c      ****     else
 179:.\main.c      ****     {
 180:.\main.c      ****         DelayBeforeShutOff--;
ARM GAS  C:\Users\SPITFI~1\AppData\Local\Temp\ccgJqqNs.s 			page 5


  49              		.loc 1 180 0
  50 001a 013B     		sub	r3, r3, #1
  51 001c 0B4A     		ldr	r2, .L6
  52 001e 1360     		str	r3, [r2]
  53              	.L3:
 181:.\main.c      ****     }
 182:.\main.c      ****     
 183:.\main.c      ****     if( Second_Counter == SECOND_COUNT )
  54              		.loc 1 183 0
  55 0020 0C4B     		ldr	r3, .L6+8
  56 0022 1B78     		ldrb	r3, [r3]
  57 0024 C82B     		cmp	r3, #200
  58 0026 0AD1     		bne	.L4
 184:.\main.c      ****     {
 185:.\main.c      ****         Second_Counter = 0;
  59              		.loc 1 185 0
  60 0028 0022     		mov	r2, #0
  61 002a 0A4B     		ldr	r3, .L6+8
  62 002c 1A70     		strb	r2, [r3]
 186:.\main.c      ****         Second_in_Base_60--;
  63              		.loc 1 186 0
  64 002e 084A     		ldr	r2, .L6+4
  65 0030 1378     		ldrb	r3, [r2]
  66 0032 013B     		sub	r3, r3, #1
  67 0034 1370     		strb	r3, [r2]
 187:.\main.c      ****         UART_TX_Flag = 1;
  68              		.loc 1 187 0
  69 0036 0122     		mov	r2, #1
  70 0038 074B     		ldr	r3, .L6+12
  71 003a 1A70     		strb	r2, [r3]
  72 003c 02E0     		b	.L5
  73              	.L4:
 188:.\main.c      ****     }
 189:.\main.c      ****     else
 190:.\main.c      ****     {
 191:.\main.c      ****         Second_Counter++;
  74              		.loc 1 191 0
  75 003e 0133     		add	r3, r3, #1
  76 0040 044A     		ldr	r2, .L6+8
  77 0042 1370     		strb	r3, [r2]
  78              	.L5:
 192:.\main.c      ****     }
 193:.\main.c      **** 
 194:.\main.c      ****     /* Clear interrupt status in an interrupt controller */
 195:.\main.c      ****     PWM_ClearInterrupt(PWM_INTR_MASK_TC);
  79              		.loc 1 195 0
  80 0044 0120     		mov	r0, #1
  81 0046 FFF7FEFF 		bl	PWM_ClearInterrupt
  82              	.LVL1:
 196:.\main.c      **** }
  83              		.loc 1 196 0
  84              		@ sp needed
  85 004a 08BD     		pop	{r3, pc}
  86              	.L7:
  87              		.align	2
  88              	.L6:
  89 004c 00000000 		.word	DelayBeforeShutOff
ARM GAS  C:\Users\SPITFI~1\AppData\Local\Temp\ccgJqqNs.s 			page 6


  90 0050 00000000 		.word	Second_in_Base_60
  91 0054 00000000 		.word	Second_Counter
  92 0058 00000000 		.word	UART_TX_Flag
  93              		.cfi_endproc
  94              	.LFE35:
  95              		.size	PWM_isr, .-PWM_isr
  96              		.section	.text.Push_Button_isr,"ax",%progbits
  97              		.align	2
  98              		.global	Push_Button_isr
  99              		.code	16
 100              		.thumb_func
 101              		.type	Push_Button_isr, %function
 102              	Push_Button_isr:
 103              	.LFB36:
 197:.\main.c      **** 
 198:.\main.c      **** 
 199:.\main.c      **** /*******************************************************************************
 200:.\main.c      **** * Function Name: Push_Button_isr
 201:.\main.c      **** ********************************************************************************
 202:.\main.c      **** * Summary:
 203:.\main.c      **** *  Push Button ISR routine code
 204:.\main.c      **** *
 205:.\main.c      **** * Parameters: None.
 206:.\main.c      **** *
 207:.\main.c      **** * Return: None.
 208:.\main.c      **** *
 209:.\main.c      **** *******************************************************************************/
 210:.\main.c      **** CY_ISR_PROTO(Push_Button_isr)
 211:.\main.c      **** {
 104              		.loc 1 211 0
 105              		.cfi_startproc
 106 0000 08B5     		push	{r3, lr}
 107              		.cfi_def_cfa_offset 8
 108              		.cfi_offset 3, -8
 109              		.cfi_offset 14, -4
 212:.\main.c      ****     Push_Button_Interrupt_Flag = 1;
 110              		.loc 1 212 0
 111 0002 0122     		mov	r2, #1
 112 0004 024B     		ldr	r3, .L9
 113 0006 1A70     		strb	r2, [r3]
 213:.\main.c      ****     PUSH_BUTTON_INPUT_ClearInterrupt();
 114              		.loc 1 213 0
 115 0008 FFF7FEFF 		bl	PUSH_BUTTON_INPUT_ClearInterrupt
 116              	.LVL2:
 214:.\main.c      **** }
 117              		.loc 1 214 0
 118              		@ sp needed
 119 000c 08BD     		pop	{r3, pc}
 120              	.L10:
 121 000e C046     		.align	2
 122              	.L9:
 123 0010 00000000 		.word	Push_Button_Interrupt_Flag
 124              		.cfi_endproc
 125              	.LFE36:
 126              		.size	Push_Button_isr, .-Push_Button_isr
 127              		.section	.text.ExecuteI2CCommand,"ax",%progbits
 128              		.align	2
ARM GAS  C:\Users\SPITFI~1\AppData\Local\Temp\ccgJqqNs.s 			page 7


 129              		.global	ExecuteI2CCommand
 130              		.code	16
 131              		.thumb_func
 132              		.type	ExecuteI2CCommand, %function
 133              	ExecuteI2CCommand:
 134              	.LFB37:
 215:.\main.c      **** 
 216:.\main.c      **** /*******************************************************************************
 217:.\main.c      **** * Function Name: ExecuteI2CCommand
 218:.\main.c      **** ********************************************************************************
 219:.\main.c      **** * Summary:
 220:.\main.c      **** *  Executes received command to control the LED color and returns status.
 221:.\main.c      **** *  If the command is unknown, the LED color is not changed.
 222:.\main.c      **** *
 223:.\main.c      **** * Parameters:
 224:.\main.c      **** *  cmd: command to execute. Available commands:
 225:.\main.c      **** 
 226:.\main.c      **** *
 227:.\main.c      **** * Return:
 228:.\main.c      **** *  Returns status of command execution. There are two statuses
 229:.\main.c      **** *  - STS_CMD_DONE: command is executed successfully.
 230:.\main.c      **** *  - STS_CMD_FAIL: unknown command
 231:.\main.c      **** *
 232:.\main.c      **** *******************************************************************************/
 233:.\main.c      **** uint8 ExecuteI2CCommand( uint32 cmd, uint8 cmdparam )
 234:.\main.c      **** {
 135              		.loc 1 234 0
 136              		.cfi_startproc
 137              	.LVL3:
 138 0000 08B5     		push	{r3, lr}
 139              		.cfi_def_cfa_offset 8
 140              		.cfi_offset 3, -8
 141              		.cfi_offset 14, -4
 142              	.LVL4:
 235:.\main.c      ****     uint8 status;
 236:.\main.c      **** 
 237:.\main.c      ****     status = STS_CMD_DONE;
 238:.\main.c      **** 
 239:.\main.c      ****     /* Execute received command */
 240:.\main.c      ****     switch (cmd)
 143              		.loc 1 240 0
 144 0002 1028     		cmp	r0, #16
 145 0004 57D8     		bhi	.L30
 146 0006 8000     		lsl	r0, r0, #2
 147              	.LVL5:
 148 0008 2C4B     		ldr	r3, .L31
 149 000a 1B58     		ldr	r3, [r3, r0]
 150 000c 9F46     		mov	pc, r3
 151              		.section	.rodata
 152              		.align	2
 153              	.L14:
 154 0000 12000000 		.word	.L13
 155 0004 1C000000 		.word	.L15
 156 0008 26000000 		.word	.L16
 157 000c 32000000 		.word	.L17
 158 0010 3C000000 		.word	.L18
 159 0014 46000000 		.word	.L19
ARM GAS  C:\Users\SPITFI~1\AppData\Local\Temp\ccgJqqNs.s 			page 8


 160 0018 50000000 		.word	.L20
 161 001c 5E000000 		.word	.L21
 162 0020 68000000 		.word	.L22
 163 0024 72000000 		.word	.L23
 164 0028 7C000000 		.word	.L24
 165 002c 8A000000 		.word	.L25
 166 0030 94000000 		.word	.L26
 167 0034 9E000000 		.word	.L27
 168 0038 A8000000 		.word	.L28
 169 003c 0E000000 		.word	.L29
 170 0040 0E000000 		.word	.L29
 171              		.section	.text.ExecuteI2CCommand
 172              	.L29:
 237:.\main.c      **** 
 173              		.loc 1 237 0
 174 000e 0020     		mov	r0, #0
 175 0010 52E0     		b	.L12
 176              	.L13:
 241:.\main.c      ****     {
 242:.\main.c      ****         case CMD_SET_OUPUT_ON:
 243:.\main.c      ****             SUPPLY_ENABLE_Write( HIGH ); 
 177              		.loc 1 243 0
 178 0012 0120     		mov	r0, #1
 179 0014 FFF7FEFF 		bl	SUPPLY_ENABLE_Write
 180              	.LVL6:
 237:.\main.c      **** 
 181              		.loc 1 237 0
 182 0018 0020     		mov	r0, #0
 244:.\main.c      ****             break;
 183              		.loc 1 244 0
 184 001a 4DE0     		b	.L12
 185              	.LVL7:
 186              	.L15:
 245:.\main.c      **** 
 246:.\main.c      ****         case CMD_SET_OUTPUT_OFF:
 247:.\main.c      ****             SUPPLY_ENABLE_Write( LOW ); 
 187              		.loc 1 247 0
 188 001c 0020     		mov	r0, #0
 189 001e FFF7FEFF 		bl	SUPPLY_ENABLE_Write
 190              	.LVL8:
 237:.\main.c      **** 
 191              		.loc 1 237 0
 192 0022 0020     		mov	r0, #0
 248:.\main.c      ****             break;
 193              		.loc 1 248 0
 194 0024 48E0     		b	.L12
 195              	.LVL9:
 196              	.L16:
 249:.\main.c      **** 
 250:.\main.c      ****         case CMD_SET_MODE:
 251:.\main.c      ****             Mode = i2cReadBuffer[ PACKET_CMD_POS ];
 197              		.loc 1 251 0
 198 0026 264B     		ldr	r3, .L31+4
 199 0028 5A78     		ldrb	r2, [r3, #1]
 200 002a 264B     		ldr	r3, .L31+8
 201 002c 1A70     		strb	r2, [r3]
 237:.\main.c      **** 
ARM GAS  C:\Users\SPITFI~1\AppData\Local\Temp\ccgJqqNs.s 			page 9


 202              		.loc 1 237 0
 203 002e 0020     		mov	r0, #0
 252:.\main.c      ****             break;
 204              		.loc 1 252 0
 205 0030 42E0     		b	.L12
 206              	.L17:
 253:.\main.c      **** 
 254:.\main.c      ****         case CMD_SET_SHUT_OFF_DELAY_MSB:
 255:.\main.c      ****             DelayBeforeShutOff = cmdparam;
 256:.\main.c      ****             DelayBeforeShutOff = DelayBeforeShutOff << 24;
 207              		.loc 1 256 0
 208 0032 0906     		lsl	r1, r1, #24
 209              	.LVL10:
 210 0034 244B     		ldr	r3, .L31+12
 211 0036 1960     		str	r1, [r3]
 237:.\main.c      **** 
 212              		.loc 1 237 0
 213 0038 0020     		mov	r0, #0
 257:.\main.c      ****             break;
 214              		.loc 1 257 0
 215 003a 3DE0     		b	.L12
 216              	.LVL11:
 217              	.L18:
 258:.\main.c      ****         
 259:.\main.c      ****         case CMD_SET_SHUT_OFF_DELAY_THRDB:
 260:.\main.c      ****             DelayBeforeShutOff = cmdparam;
 261:.\main.c      ****             DelayBeforeShutOff = DelayBeforeShutOff << 16;
 218              		.loc 1 261 0
 219 003c 0904     		lsl	r1, r1, #16
 220              	.LVL12:
 221 003e 224B     		ldr	r3, .L31+12
 222 0040 1960     		str	r1, [r3]
 237:.\main.c      **** 
 223              		.loc 1 237 0
 224 0042 0020     		mov	r0, #0
 262:.\main.c      ****             break;
 225              		.loc 1 262 0
 226 0044 38E0     		b	.L12
 227              	.LVL13:
 228              	.L19:
 263:.\main.c      ****         
 264:.\main.c      ****         case CMD_SET_SHUT_OFF_DELAY_SCNDB:
 265:.\main.c      ****             DelayBeforeShutOff = cmdparam;
 266:.\main.c      ****             DelayBeforeShutOff = DelayBeforeShutOff << 8;
 229              		.loc 1 266 0
 230 0046 0902     		lsl	r1, r1, #8
 231              	.LVL14:
 232 0048 1F4B     		ldr	r3, .L31+12
 233 004a 1960     		str	r1, [r3]
 237:.\main.c      **** 
 234              		.loc 1 237 0
 235 004c 0020     		mov	r0, #0
 267:.\main.c      ****             break;
 236              		.loc 1 267 0
 237 004e 33E0     		b	.L12
 238              	.LVL15:
 239              	.L20:
ARM GAS  C:\Users\SPITFI~1\AppData\Local\Temp\ccgJqqNs.s 			page 10


 268:.\main.c      ****         
 269:.\main.c      ****         case CMD_SET_SHUT_OFF_DELAY_LSB:
 270:.\main.c      ****             DelayBeforeShutOff += cmdparam;
 240              		.loc 1 270 0
 241 0050 1D4B     		ldr	r3, .L31+12
 242 0052 1A68     		ldr	r2, [r3]
 243 0054 9446     		mov	ip, r2
 244 0056 6144     		add	r1, r1, ip
 245              	.LVL16:
 246 0058 1960     		str	r1, [r3]
 237:.\main.c      **** 
 247              		.loc 1 237 0
 248 005a 0020     		mov	r0, #0
 271:.\main.c      ****             break;
 249              		.loc 1 271 0
 250 005c 2CE0     		b	.L12
 251              	.LVL17:
 252              	.L21:
 272:.\main.c      ****         
 273:.\main.c      ****         case CMD_SET_ON_TIME_DELAY_MSB:
 274:.\main.c      ****             ON_Time = cmdparam;
 275:.\main.c      ****             ON_Time = ON_Time << 24;
 253              		.loc 1 275 0
 254 005e 0906     		lsl	r1, r1, #24
 255              	.LVL18:
 256 0060 1A4B     		ldr	r3, .L31+16
 257 0062 1960     		str	r1, [r3]
 237:.\main.c      **** 
 258              		.loc 1 237 0
 259 0064 0020     		mov	r0, #0
 276:.\main.c      ****             break;
 260              		.loc 1 276 0
 261 0066 27E0     		b	.L12
 262              	.LVL19:
 263              	.L22:
 277:.\main.c      ****         
 278:.\main.c      ****         case CMD_SET_ON_TIME_DELAY_THRDB:
 279:.\main.c      ****             ON_Time = cmdparam;
 280:.\main.c      ****             ON_Time = ON_Time << 16;
 264              		.loc 1 280 0
 265 0068 0904     		lsl	r1, r1, #16
 266              	.LVL20:
 267 006a 184B     		ldr	r3, .L31+16
 268 006c 1960     		str	r1, [r3]
 237:.\main.c      **** 
 269              		.loc 1 237 0
 270 006e 0020     		mov	r0, #0
 281:.\main.c      ****             break;
 271              		.loc 1 281 0
 272 0070 22E0     		b	.L12
 273              	.LVL21:
 274              	.L23:
 282:.\main.c      ****         
 283:.\main.c      ****         case CMD_SET_ON_TIME_DELAY_SCNDB:
 284:.\main.c      ****             ON_Time = cmdparam;
 285:.\main.c      ****             ON_Time = ON_Time << 8;
 275              		.loc 1 285 0
ARM GAS  C:\Users\SPITFI~1\AppData\Local\Temp\ccgJqqNs.s 			page 11


 276 0072 0902     		lsl	r1, r1, #8
 277              	.LVL22:
 278 0074 154B     		ldr	r3, .L31+16
 279 0076 1960     		str	r1, [r3]
 237:.\main.c      **** 
 280              		.loc 1 237 0
 281 0078 0020     		mov	r0, #0
 286:.\main.c      ****             break;
 282              		.loc 1 286 0
 283 007a 1DE0     		b	.L12
 284              	.LVL23:
 285              	.L24:
 287:.\main.c      ****         
 288:.\main.c      ****         case CMD_SET_ON_TIME_DELAY_LSB:
 289:.\main.c      ****             ON_Time += cmdparam;
 286              		.loc 1 289 0
 287 007c 134B     		ldr	r3, .L31+16
 288 007e 1A68     		ldr	r2, [r3]
 289 0080 9446     		mov	ip, r2
 290 0082 6144     		add	r1, r1, ip
 291              	.LVL24:
 292 0084 1960     		str	r1, [r3]
 237:.\main.c      **** 
 293              		.loc 1 237 0
 294 0086 0020     		mov	r0, #0
 290:.\main.c      ****             break;
 295              		.loc 1 290 0
 296 0088 16E0     		b	.L12
 297              	.LVL25:
 298              	.L25:
 291:.\main.c      ****         
 292:.\main.c      ****         case CMD_SET_OFF_TIME_DELAY_MSB:
 293:.\main.c      ****             OFF_Time = cmdparam;
 294:.\main.c      ****             OFF_Time = OFF_Time << 24;
 299              		.loc 1 294 0
 300 008a 0906     		lsl	r1, r1, #24
 301              	.LVL26:
 302 008c 104B     		ldr	r3, .L31+20
 303 008e 1960     		str	r1, [r3]
 237:.\main.c      **** 
 304              		.loc 1 237 0
 305 0090 0020     		mov	r0, #0
 295:.\main.c      ****             break;
 306              		.loc 1 295 0
 307 0092 11E0     		b	.L12
 308              	.LVL27:
 309              	.L26:
 296:.\main.c      ****         
 297:.\main.c      ****         case CMD_SET_OFF_TIME_DELAY_THRDB:
 298:.\main.c      ****             OFF_Time = cmdparam;
 299:.\main.c      ****             OFF_Time = OFF_Time << 16;
 310              		.loc 1 299 0
 311 0094 0904     		lsl	r1, r1, #16
 312              	.LVL28:
 313 0096 0E4B     		ldr	r3, .L31+20
 314 0098 1960     		str	r1, [r3]
 237:.\main.c      **** 
ARM GAS  C:\Users\SPITFI~1\AppData\Local\Temp\ccgJqqNs.s 			page 12


 315              		.loc 1 237 0
 316 009a 0020     		mov	r0, #0
 300:.\main.c      ****             break;
 317              		.loc 1 300 0
 318 009c 0CE0     		b	.L12
 319              	.LVL29:
 320              	.L27:
 301:.\main.c      ****         
 302:.\main.c      ****         case CMD_SET_OFF_TIME_DELAY_SCNDB:
 303:.\main.c      ****             OFF_Time = cmdparam;
 304:.\main.c      ****             OFF_Time = OFF_Time << 8;
 321              		.loc 1 304 0
 322 009e 0902     		lsl	r1, r1, #8
 323              	.LVL30:
 324 00a0 0B4B     		ldr	r3, .L31+20
 325 00a2 1960     		str	r1, [r3]
 237:.\main.c      **** 
 326              		.loc 1 237 0
 327 00a4 0020     		mov	r0, #0
 305:.\main.c      ****             break;
 328              		.loc 1 305 0
 329 00a6 07E0     		b	.L12
 330              	.LVL31:
 331              	.L28:
 306:.\main.c      ****         
 307:.\main.c      ****         case CMD_SET_OFF_TIME_DELAY_LSB:
 308:.\main.c      ****             OFF_Time += cmdparam;
 332              		.loc 1 308 0
 333 00a8 094B     		ldr	r3, .L31+20
 334 00aa 1A68     		ldr	r2, [r3]
 335 00ac 9446     		mov	ip, r2
 336 00ae 6144     		add	r1, r1, ip
 337              	.LVL32:
 338 00b0 1960     		str	r1, [r3]
 237:.\main.c      **** 
 339              		.loc 1 237 0
 340 00b2 0020     		mov	r0, #0
 309:.\main.c      ****             break;
 341              		.loc 1 309 0
 342 00b4 00E0     		b	.L12
 343              	.LVL33:
 344              	.L30:
 310:.\main.c      ****         
 311:.\main.c      ****         case CMD_SET_DEVICE_ADDRESS:
 312:.\main.c      ****             //I2C_I2CSlaveSetAddress( cmdparam );
 313:.\main.c      ****             break;
 314:.\main.c      ****             
 315:.\main.c      ****         case STS_CMD_BUTTON_EVENT:
 316:.\main.c      ****             /* To be added */
 317:.\main.c      ****             break;
 318:.\main.c      **** 
 319:.\main.c      ****         default:
 320:.\main.c      ****             status = STS_CMD_FAIL;
 345              		.loc 1 320 0
 346 00b6 FF20     		mov	r0, #255
 347              	.LVL34:
 348              	.L12:
ARM GAS  C:\Users\SPITFI~1\AppData\Local\Temp\ccgJqqNs.s 			page 13


 321:.\main.c      ****             break;
 322:.\main.c      ****     }
 323:.\main.c      **** 
 324:.\main.c      ****     return (status);
 325:.\main.c      **** }
 349              		.loc 1 325 0
 350              		@ sp needed
 351 00b8 08BD     		pop	{r3, pc}
 352              	.L32:
 353 00ba C046     		.align	2
 354              	.L31:
 355 00bc 00000000 		.word	.L14
 356 00c0 00000000 		.word	.LANCHOR0
 357 00c4 00000000 		.word	Mode
 358 00c8 00000000 		.word	DelayBeforeShutOff
 359 00cc 00000000 		.word	ON_Time
 360 00d0 00000000 		.word	OFF_Time
 361              		.cfi_endproc
 362              	.LFE37:
 363              		.size	ExecuteI2CCommand, .-ExecuteI2CCommand
 364              		.section	.text.main,"ax",%progbits
 365              		.align	2
 366              		.global	main
 367              		.code	16
 368              		.thumb_func
 369              		.type	main, %function
 370              	main:
 371              	.LFB34:
  22:.\main.c      ****     /* Enabling global interrupts */
 372              		.loc 1 22 0
 373              		.cfi_startproc
 374 0000 08B5     		push	{r3, lr}
 375              		.cfi_def_cfa_offset 8
 376              		.cfi_offset 3, -8
 377              		.cfi_offset 14, -4
  24:.\main.c      ****     
 378              		.loc 1 24 0
 379              	@ 24 ".\main.c" 1
 380 0002 62B6     		CPSIE   i
 381              	@ 0 "" 2
  27:.\main.c      ****     
 382              		.loc 1 27 0
 383              		.code	16
 384 0004 FF20     		mov	r0, #255
 385 0006 FFF7FEFF 		bl	PWM_CLOCK_StartEx
 386              	.LVL35:
  30:.\main.c      ****     I2C_I2CSlaveInitWriteBuf(i2cWriteBuffer, BUFFER_SIZE);
 387              		.loc 1 30 0
 388 000a 3F48     		ldr	r0, .L42
 389 000c 0421     		mov	r1, #4
 390 000e FFF7FEFF 		bl	I2C_I2CSlaveInitReadBuf
 391              	.LVL36:
  31:.\main.c      ****     I2C_Start();
 392              		.loc 1 31 0
 393 0012 3E48     		ldr	r0, .L42+4
 394 0014 0421     		mov	r1, #4
 395 0016 FFF7FEFF 		bl	I2C_I2CSlaveInitWriteBuf
ARM GAS  C:\Users\SPITFI~1\AppData\Local\Temp\ccgJqqNs.s 			page 14


 396              	.LVL37:
  32:.\main.c      ****     PWM_Start();
 397              		.loc 1 32 0
 398 001a FFF7FEFF 		bl	I2C_Start
 399              	.LVL38:
  33:.\main.c      **** //    SW_Tx_UART_Start();
 400              		.loc 1 33 0
 401 001e FFF7FEFF 		bl	PWM_Start
 402              	.LVL39:
  37:.\main.c      ****     Push_Button_isr_StartEx( Push_Button_isr );
 403              		.loc 1 37 0
 404 0022 3B48     		ldr	r0, .L42+8
 405 0024 FFF7FEFF 		bl	PWM_isr_StartEx
 406              	.LVL40:
  38:.\main.c      **** 
 407              		.loc 1 38 0
 408 0028 3A48     		ldr	r0, .L42+12
 409 002a FFF7FEFF 		bl	Push_Button_isr_StartEx
 410              	.LVL41:
  41:.\main.c      ****     Second_in_Base_60 = ( DelayBeforeShutOff / OVERFLOW_PER_SECOND );
 411              		.loc 1 41 0
 412 002e 3A4A     		ldr	r2, .L42+16
 413 0030 3A4B     		ldr	r3, .L42+20
 414 0032 1A60     		str	r2, [r3]
  42:.\main.c      ****     Push_Button_Interrupt_Flag = 0;
 415              		.loc 1 42 0
 416 0034 3C22     		mov	r2, #60
 417 0036 3A4B     		ldr	r3, .L42+24
 418 0038 1A70     		strb	r2, [r3]
  43:.\main.c      ****     Second_Counter = 0;
 419              		.loc 1 43 0
 420 003a 0023     		mov	r3, #0
 421 003c 394A     		ldr	r2, .L42+28
 422 003e 1370     		strb	r3, [r2]
  44:.\main.c      ****     UART_TX_Flag = 0;
 423              		.loc 1 44 0
 424 0040 394A     		ldr	r2, .L42+32
 425 0042 1370     		strb	r3, [r2]
  45:.\main.c      ****     I2C_Status = 0xFE;
 426              		.loc 1 45 0
 427 0044 394A     		ldr	r2, .L42+36
 428 0046 1370     		strb	r3, [r2]
  46:.\main.c      **** 
 429              		.loc 1 46 0
 430 0048 FE22     		mov	r2, #254
 431 004a 394B     		ldr	r3, .L42+40
 432 004c 1A70     		strb	r2, [r3]
 433              	.L40:
  51:.\main.c      ****         {
 434              		.loc 1 51 0
 435 004e 334B     		ldr	r3, .L42+20
 436 0050 1B68     		ldr	r3, [r3]
 437 0052 002B     		cmp	r3, #0
 438 0054 05D1     		bne	.L34
  53:.\main.c      ****             PWM_WriteCompare( LOW_GLOW );
 439              		.loc 1 53 0
 440 0056 0020     		mov	r0, #0
ARM GAS  C:\Users\SPITFI~1\AppData\Local\Temp\ccgJqqNs.s 			page 15


 441 0058 FFF7FEFF 		bl	SUPPLY_ENABLE_Write
 442              	.LVL42:
  54:.\main.c      ****         }
 443              		.loc 1 54 0
 444 005c 3548     		ldr	r0, .L42+44
 445 005e FFF7FEFF 		bl	PWM_WriteCompare
 446              	.LVL43:
 447              	.L34:
  62:.\main.c      ****         {
 448              		.loc 1 62 0
 449 0062 304B     		ldr	r3, .L42+28
 450 0064 1B78     		ldrb	r3, [r3]
 451 0066 012B     		cmp	r3, #1
 452 0068 12D1     		bne	.L35
  65:.\main.c      ****             
 453              		.loc 1 65 0
 454 006a 0120     		mov	r0, #1
 455 006c FFF7FEFF 		bl	SUPPLY_ENABLE_Write
 456              	.LVL44:
  68:.\main.c      ****             
 457              		.loc 1 68 0
 458 0070 0022     		mov	r2, #0
 459 0072 2C4B     		ldr	r3, .L42+28
 460 0074 1A70     		strb	r2, [r3]
  71:.\main.c      ****             Second_in_Base_60 = ( DelayBeforeShutOff / OVERFLOW_PER_SECOND );
 461              		.loc 1 71 0
 462 0076 284A     		ldr	r2, .L42+16
 463 0078 284B     		ldr	r3, .L42+20
 464 007a 1A60     		str	r2, [r3]
  72:.\main.c      ****   
 465              		.loc 1 72 0
 466 007c 3C22     		mov	r2, #60
 467 007e 284B     		ldr	r3, .L42+24
 468 0080 1A70     		strb	r2, [r3]
  75:.\main.c      ****             PWM_ClearInterrupt(PWM_INTR_MASK_TC);
 469              		.loc 1 75 0
 470 0082 2348     		ldr	r0, .L42+8
 471 0084 FFF7FEFF 		bl	PWM_isr_StartEx
 472              	.LVL45:
  76:.\main.c      ****         }
 473              		.loc 1 76 0
 474 0088 0120     		mov	r0, #1
 475 008a FFF7FEFF 		bl	PWM_ClearInterrupt
 476              	.LVL46:
 477 008e 0EE0     		b	.L36
 478              	.L35:
  81:.\main.c      ****             {
 479              		.loc 1 81 0
 480 0090 224B     		ldr	r3, .L42+20
 481 0092 1B68     		ldr	r3, [r3]
 482 0094 002B     		cmp	r3, #0
 483 0096 0AD0     		beq	.L36
  83:.\main.c      ****                 {
 484              		.loc 1 83 0
 485 0098 234B     		ldr	r3, .L42+32
 486 009a 1B78     		ldrb	r3, [r3]
 487 009c 632B     		cmp	r3, #99
ARM GAS  C:\Users\SPITFI~1\AppData\Local\Temp\ccgJqqNs.s 			page 16


 488 009e 03D8     		bhi	.L37
  85:.\main.c      ****                 }
 489              		.loc 1 85 0
 490 00a0 2548     		ldr	r0, .L42+48
 491 00a2 FFF7FEFF 		bl	PWM_WriteCompare
 492              	.LVL47:
 493 00a6 02E0     		b	.L36
 494              	.L37:
  89:.\main.c      ****                 }
 495              		.loc 1 89 0
 496 00a8 2448     		ldr	r0, .L42+52
 497 00aa FFF7FEFF 		bl	PWM_WriteCompare
 498              	.LVL48:
 499              	.L36:
 126:.\main.c      ****         {
 500              		.loc 1 126 0
 501 00ae FFF7FEFF 		bl	I2C_I2CSlaveStatus
 502              	.LVL49:
 503 00b2 C306     		lsl	r3, r0, #27
 504 00b4 1FD5     		bpl	.L38
 129:.\main.c      ****             {
 505              		.loc 1 129 0
 506 00b6 FFF7FEFF 		bl	I2C_I2CSlaveGetWriteBufSize
 507              	.LVL50:
 508 00ba 0428     		cmp	r0, #4
 509 00bc 0ED1     		bne	.L39
 132:.\main.c      ****                     (i2cWriteBuffer[PACKET_EOP_POS] == PACKET_EOP))
 510              		.loc 1 132 0
 511 00be 134B     		ldr	r3, .L42+4
 512 00c0 1B78     		ldrb	r3, [r3]
 513 00c2 012B     		cmp	r3, #1
 514 00c4 0AD1     		bne	.L39
 133:.\main.c      ****                 {
 515              		.loc 1 133 0 discriminator 1
 516 00c6 114B     		ldr	r3, .L42+4
 517 00c8 DB78     		ldrb	r3, [r3, #3]
 132:.\main.c      ****                     (i2cWriteBuffer[PACKET_EOP_POS] == PACKET_EOP))
 518              		.loc 1 132 0 discriminator 1
 519 00ca 172B     		cmp	r3, #23
 520 00cc 06D1     		bne	.L39
 135:.\main.c      ****                 }
 521              		.loc 1 135 0
 522 00ce 0F4B     		ldr	r3, .L42+4
 523 00d0 5878     		ldrb	r0, [r3, #1]
 524 00d2 9978     		ldrb	r1, [r3, #2]
 525 00d4 FFF7FEFF 		bl	ExecuteI2CCommand
 526              	.LVL51:
 527 00d8 154B     		ldr	r3, .L42+40
 528 00da 1870     		strb	r0, [r3]
 529              	.L39:
 140:.\main.c      ****             (void) I2C_I2CSlaveClearWriteStatus();
 530              		.loc 1 140 0
 531 00dc FFF7FEFF 		bl	I2C_I2CSlaveClearWriteBuf
 532              	.LVL52:
 141:.\main.c      **** 
 533              		.loc 1 141 0
 534 00e0 FFF7FEFF 		bl	I2C_I2CSlaveClearWriteStatus
ARM GAS  C:\Users\SPITFI~1\AppData\Local\Temp\ccgJqqNs.s 			page 17


 535              	.LVL53:
 144:.\main.c      ****             i2cReadBuffer[PACKET_PARAM_POS] = i2cWriteBuffer[PACKET_PARAM_POS];
 536              		.loc 1 144 0
 537 00e4 084A     		ldr	r2, .L42
 538 00e6 124B     		ldr	r3, .L42+40
 539 00e8 1978     		ldrb	r1, [r3]
 540 00ea 5170     		strb	r1, [r2, #1]
 145:.\main.c      ****             I2C_Status = STS_CMD_FAIL;
 541              		.loc 1 145 0
 542 00ec 0749     		ldr	r1, .L42+4
 543 00ee 8978     		ldrb	r1, [r1, #2]
 544 00f0 9170     		strb	r1, [r2, #2]
 146:.\main.c      ****         }
 545              		.loc 1 146 0
 546 00f2 FF22     		mov	r2, #255
 547 00f4 1A70     		strb	r2, [r3]
 548              	.L38:
 150:.\main.c      ****         {
 549              		.loc 1 150 0
 550 00f6 FFF7FEFF 		bl	I2C_I2CSlaveStatus
 551              	.LVL54:
 552 00fa C307     		lsl	r3, r0, #31
 553 00fc A7D5     		bpl	.L40
 153:.\main.c      ****             (void) I2C_I2CSlaveClearReadStatus();
 554              		.loc 1 153 0
 555 00fe FFF7FEFF 		bl	I2C_I2CSlaveClearReadBuf
 556              	.LVL55:
 154:.\main.c      ****         }
 557              		.loc 1 154 0
 558 0102 FFF7FEFF 		bl	I2C_I2CSlaveClearReadStatus
 559              	.LVL56:
 560 0106 A2E7     		b	.L40
 561              	.L43:
 562              		.align	2
 563              	.L42:
 564 0108 00000000 		.word	.LANCHOR0
 565 010c 00000000 		.word	i2cWriteBuffer
 566 0110 00000000 		.word	PWM_isr
 567 0114 00000000 		.word	Push_Button_isr
 568 0118 E02E0000 		.word	12000
 569 011c 00000000 		.word	DelayBeforeShutOff
 570 0120 00000000 		.word	Second_in_Base_60
 571 0124 00000000 		.word	Push_Button_Interrupt_Flag
 572 0128 00000000 		.word	Second_Counter
 573 012c 00000000 		.word	UART_TX_Flag
 574 0130 00000000 		.word	I2C_Status
 575 0134 983A0000 		.word	15000
 576 0138 30750000 		.word	30000
 577 013c 60EA0000 		.word	60000
 578              		.cfi_endproc
 579              	.LFE34:
 580              		.size	main, .-main
 581              		.comm	i2cWriteBuffer,4,4
 582              		.global	i2cReadBuffer
 583              		.comm	I2C_Status,1,1
 584              		.comm	UART_Tx_Size,1,1
 585              		.comm	UART_Buffer,32,4
ARM GAS  C:\Users\SPITFI~1\AppData\Local\Temp\ccgJqqNs.s 			page 18


 586              		.comm	UART_TX_Flag,1,1
 587              		.comm	Push_Button_Interrupt_Flag,1,1
 588              		.comm	Second_in_Base_60,1,1
 589              		.comm	Mode,1,1
 590              		.comm	Second_Counter,1,1
 591              		.comm	ON_OFF_Input_Value,1,1
 592              		.comm	RESET_TIMEOUT_FLAG,1,1
 593              		.comm	OFF_Time,4,4
 594              		.comm	ON_Time,4,4
 595              		.comm	DelayBeforeShutOff,4,4
 596              		.data
 597              		.align	2
 598              		.set	.LANCHOR0,. + 0
 599              		.type	i2cReadBuffer, %object
 600              		.size	i2cReadBuffer, 4
 601              	i2cReadBuffer:
 602 0000 01       		.byte	1
 603 0001 FF       		.byte	-1
 604 0002 FF       		.byte	-1
 605 0003 17       		.byte	23
 606              		.text
 607              	.Letext0:
 608              		.file 2 "Generated_Source\\PSoC4/cytypes.h"
 609              		.file 3 ".\\main.h"
 610              		.file 4 "Generated_Source\\PSoC4/PWM.h"
 611              		.file 5 "Generated_Source\\PSoC4/SUPPLY_ENABLE.h"
 612              		.file 6 "Generated_Source\\PSoC4/PWM_CLOCK.h"
 613              		.file 7 "Generated_Source\\PSoC4/I2C_I2C.h"
 614              		.file 8 "Generated_Source\\PSoC4/PWM_isr.h"
 615              		.file 9 "Generated_Source\\PSoC4/I2C.h"
 616              		.file 10 "Generated_Source\\PSoC4/Push_Button_isr.h"
 617              		.file 11 "Generated_Source\\PSoC4/PUSH_BUTTON_INPUT.h"